
zzZYca10.elf:     file format elf32-avr

Sections:
Idx Name          Size      VMA       LMA       File off  Algn
  0 .data         0000002e  00800100  00000e62  00000ed6  2**0
                  CONTENTS, ALLOC, LOAD, DATA
  1 .text         00000e62  00000000  00000000  00000074  2**1
                  CONTENTS, ALLOC, LOAD, READONLY, CODE
  2 .stab         00001284  00000000  00000000  00000f04  2**2
                  CONTENTS, READONLY, DEBUGGING
  3 .stabstr      00000edd  00000000  00000000  00002188  2**0
                  CONTENTS, READONLY, DEBUGGING
  4 .comment      00000027  00000000  00000000  00003065  2**0
                  CONTENTS, READONLY
  5 .debug_aranges 00000080  00000000  00000000  00003090  2**3
                  CONTENTS, READONLY, DEBUGGING
  6 .debug_info   00000868  00000000  00000000  00003110  2**0
                  CONTENTS, READONLY, DEBUGGING
  7 .debug_abbrev 000005f2  00000000  00000000  00003978  2**0
                  CONTENTS, READONLY, DEBUGGING
  8 .debug_line   000001fe  00000000  00000000  00003f6a  2**0
                  CONTENTS, READONLY, DEBUGGING
  9 .debug_str    0000020b  00000000  00000000  00004168  2**0
                  CONTENTS, READONLY, DEBUGGING

Disassembly of section .text:

00000000 <__vectors>:
   0:	0c 94 b5 00 	jmp	0x16a	; 0x16a <__ctors_end>
   4:	0c 94 ca 00 	jmp	0x194	; 0x194 <__bad_interrupt>
   8:	0c 94 ca 00 	jmp	0x194	; 0x194 <__bad_interrupt>
   c:	0c 94 ca 00 	jmp	0x194	; 0x194 <__bad_interrupt>
  10:	0c 94 ca 00 	jmp	0x194	; 0x194 <__bad_interrupt>
  14:	0c 94 ca 00 	jmp	0x194	; 0x194 <__bad_interrupt>
  18:	0c 94 ca 00 	jmp	0x194	; 0x194 <__bad_interrupt>
  1c:	0c 94 ca 00 	jmp	0x194	; 0x194 <__bad_interrupt>
  20:	0c 94 ca 00 	jmp	0x194	; 0x194 <__bad_interrupt>
  24:	0c 94 ca 00 	jmp	0x194	; 0x194 <__bad_interrupt>
  28:	0c 94 ca 00 	jmp	0x194	; 0x194 <__bad_interrupt>
  2c:	0c 94 ca 00 	jmp	0x194	; 0x194 <__bad_interrupt>
  30:	0c 94 ca 00 	jmp	0x194	; 0x194 <__bad_interrupt>
  34:	0c 94 ca 00 	jmp	0x194	; 0x194 <__bad_interrupt>
  38:	0c 94 ca 00 	jmp	0x194	; 0x194 <__bad_interrupt>
  3c:	0c 94 ca 00 	jmp	0x194	; 0x194 <__bad_interrupt>
  40:	0c 94 ca 00 	jmp	0x194	; 0x194 <__bad_interrupt>
  44:	0c 94 ca 00 	jmp	0x194	; 0x194 <__bad_interrupt>
  48:	0c 94 ca 00 	jmp	0x194	; 0x194 <__bad_interrupt>
  4c:	0c 94 ca 00 	jmp	0x194	; 0x194 <__bad_interrupt>
  50:	0c 94 ca 00 	jmp	0x194	; 0x194 <__bad_interrupt>
  54:	0c 94 ca 00 	jmp	0x194	; 0x194 <__bad_interrupt>
  58:	0c 94 ca 00 	jmp	0x194	; 0x194 <__bad_interrupt>
  5c:	0c 94 ca 00 	jmp	0x194	; 0x194 <__bad_interrupt>
  60:	0c 94 ca 00 	jmp	0x194	; 0x194 <__bad_interrupt>
  64:	0c 94 ca 00 	jmp	0x194	; 0x194 <__bad_interrupt>

00000068 <__trampolines_end>:
  68:	6e 61       	ori	r22, 0x1E	; 30
  6a:	6e 00       	.word	0x006e	; ????

0000006c <__c.2128>:
  6c:	69 6e 66 00 00 40 7a 10 f3 5a 00 a0 72 4e 18 09     inf..@z..Z..rN..
  7c:	00 10 a5 d4 e8 00 00 e8 76 48 17 00 00 e4 0b 54     ........vH.....T
  8c:	02 00 00 ca 9a 3b 00 00 00 e1 f5 05 00 00 80 96     .....;..........
  9c:	98 00 00 00 40 42 0f 00 00 00 a0 86 01 00 00 00     ....@B..........
  ac:	10 27 00 00 00 00 e8 03 00 00 00 00 64 00 00 00     .'..........d...
  bc:	00 00 0a 00 00 00 00 00 01 00 00 00 00 00 2c 76     ..............,v
  cc:	d8 88 dc 67 4f 08 23 df c1 df ae 59 e1 b1 b7 96     ...gO.#....Y....
  dc:	e5 e3 e4 53 c6 3a e6 51 99 76 96 e8 e6 c2 84 26     ...S.:.Q.v.....&
  ec:	eb 89 8c 9b 62 ed 40 7c 6f fc ef bc 9c 9f 40 f2     ....b.@|o.....@.
  fc:	ba a5 6f a5 f4 90 05 5a 2a f7 5c 93 6b 6c f9 67     ..o....Z*.\.kl.g
 10c:	6d c1 1b fc e0 e4 0d 47 fe f5 20 e6 b5 00 d0 ed     m......G.. .....
 11c:	90 2e 03 00 94 35 77 05 00 80 84 1e 08 00 00 20     .....5w........ 
 12c:	4e 0a 00 00 00 c8 0c 33 33 33 33 0f 98 6e 12 83     N......3333..n..
 13c:	11 41 ef 8d 21 14 89 3b e6 55 16 cf fe e6 db 18     .A..!..;.U......
 14c:	d1 84 4b 38 1b f7 7c 1d 90 1d a4 bb e4 24 20 32     ..K8..|......$ 2
 15c:	84 72 5e 22 81 00 c9 f1 24 ec a1 e5 3d 27           .r^"....$...='

0000016a <__ctors_end>:
 16a:	11 24       	eor	r1, r1
 16c:	1f be       	out	0x3f, r1	; 63
 16e:	cf ef       	ldi	r28, 0xFF	; 255
 170:	d8 e0       	ldi	r29, 0x08	; 8
 172:	de bf       	out	0x3e, r29	; 62
 174:	cd bf       	out	0x3d, r28	; 61

00000176 <__do_copy_data>:
 176:	11 e0       	ldi	r17, 0x01	; 1
 178:	a0 e0       	ldi	r26, 0x00	; 0
 17a:	b1 e0       	ldi	r27, 0x01	; 1
 17c:	e2 e6       	ldi	r30, 0x62	; 98
 17e:	fe e0       	ldi	r31, 0x0E	; 14
 180:	02 c0       	rjmp	.+4      	; 0x186 <__do_copy_data+0x10>
 182:	05 90       	lpm	r0, Z+
 184:	0d 92       	st	X+, r0
 186:	ae 32       	cpi	r26, 0x2E	; 46
 188:	b1 07       	cpc	r27, r17
 18a:	d9 f7       	brne	.-10     	; 0x182 <__do_copy_data+0xc>
 18c:	0e 94 dd 04 	call	0x9ba	; 0x9ba <main>
 190:	0c 94 2f 07 	jmp	0xe5e	; 0xe5e <_exit>

00000194 <__bad_interrupt>:
 194:	0c 94 00 00 	jmp	0	; 0x0 <__vectors>

00000198 <vfprintf>:
 198:	a3 e1       	ldi	r26, 0x13	; 19
 19a:	b0 e0       	ldi	r27, 0x00	; 0
 19c:	e2 ed       	ldi	r30, 0xD2	; 210
 19e:	f0 e0       	ldi	r31, 0x00	; 0
 1a0:	0c 94 58 05 	jmp	0xab0	; 0xab0 <__prologue_saves__>
 1a4:	7c 01       	movw	r14, r24
 1a6:	1b 01       	movw	r2, r22
 1a8:	6a 01       	movw	r12, r20
 1aa:	fc 01       	movw	r30, r24
 1ac:	17 82       	std	Z+7, r1	; 0x07
 1ae:	16 82       	std	Z+6, r1	; 0x06
 1b0:	83 81       	ldd	r24, Z+3	; 0x03
 1b2:	81 ff       	sbrs	r24, 1
 1b4:	66 c3       	rjmp	.+1740   	; 0x882 <vfprintf+0x6ea>
 1b6:	be 01       	movw	r22, r28
 1b8:	6f 5f       	subi	r22, 0xFF	; 255
 1ba:	7f 4f       	sbci	r23, 0xFF	; 255
 1bc:	4b 01       	movw	r8, r22
 1be:	f7 01       	movw	r30, r14
 1c0:	93 81       	ldd	r25, Z+3	; 0x03
 1c2:	f1 01       	movw	r30, r2
 1c4:	93 fd       	sbrc	r25, 3
 1c6:	85 91       	lpm	r24, Z+
 1c8:	93 ff       	sbrs	r25, 3
 1ca:	81 91       	ld	r24, Z+
 1cc:	1f 01       	movw	r2, r30
 1ce:	88 23       	and	r24, r24
 1d0:	09 f4       	brne	.+2      	; 0x1d4 <vfprintf+0x3c>
 1d2:	53 c3       	rjmp	.+1702   	; 0x87a <vfprintf+0x6e2>
 1d4:	85 32       	cpi	r24, 0x25	; 37
 1d6:	39 f4       	brne	.+14     	; 0x1e6 <vfprintf+0x4e>
 1d8:	93 fd       	sbrc	r25, 3
 1da:	85 91       	lpm	r24, Z+
 1dc:	93 ff       	sbrs	r25, 3
 1de:	81 91       	ld	r24, Z+
 1e0:	1f 01       	movw	r2, r30
 1e2:	85 32       	cpi	r24, 0x25	; 37
 1e4:	39 f4       	brne	.+14     	; 0x1f4 <vfprintf+0x5c>
 1e6:	b7 01       	movw	r22, r14
 1e8:	90 e0       	ldi	r25, 0x00	; 0
 1ea:	0e 94 7d 06 	call	0xcfa	; 0xcfa <fputc>
 1ee:	56 01       	movw	r10, r12
 1f0:	65 01       	movw	r12, r10
 1f2:	e5 cf       	rjmp	.-54     	; 0x1be <vfprintf+0x26>
 1f4:	10 e0       	ldi	r17, 0x00	; 0
 1f6:	51 2c       	mov	r5, r1
 1f8:	20 e0       	ldi	r18, 0x00	; 0
 1fa:	20 32       	cpi	r18, 0x20	; 32
 1fc:	a0 f4       	brcc	.+40     	; 0x226 <vfprintf+0x8e>
 1fe:	8b 32       	cpi	r24, 0x2B	; 43
 200:	69 f0       	breq	.+26     	; 0x21c <vfprintf+0x84>
 202:	30 f4       	brcc	.+12     	; 0x210 <vfprintf+0x78>
 204:	80 32       	cpi	r24, 0x20	; 32
 206:	59 f0       	breq	.+22     	; 0x21e <vfprintf+0x86>
 208:	83 32       	cpi	r24, 0x23	; 35
 20a:	69 f4       	brne	.+26     	; 0x226 <vfprintf+0x8e>
 20c:	20 61       	ori	r18, 0x10	; 16
 20e:	2c c0       	rjmp	.+88     	; 0x268 <vfprintf+0xd0>
 210:	8d 32       	cpi	r24, 0x2D	; 45
 212:	39 f0       	breq	.+14     	; 0x222 <vfprintf+0x8a>
 214:	80 33       	cpi	r24, 0x30	; 48
 216:	39 f4       	brne	.+14     	; 0x226 <vfprintf+0x8e>
 218:	21 60       	ori	r18, 0x01	; 1
 21a:	26 c0       	rjmp	.+76     	; 0x268 <vfprintf+0xd0>
 21c:	22 60       	ori	r18, 0x02	; 2
 21e:	24 60       	ori	r18, 0x04	; 4
 220:	23 c0       	rjmp	.+70     	; 0x268 <vfprintf+0xd0>
 222:	28 60       	ori	r18, 0x08	; 8
 224:	21 c0       	rjmp	.+66     	; 0x268 <vfprintf+0xd0>
 226:	27 fd       	sbrc	r18, 7
 228:	27 c0       	rjmp	.+78     	; 0x278 <vfprintf+0xe0>
 22a:	30 ed       	ldi	r19, 0xD0	; 208
 22c:	38 0f       	add	r19, r24
 22e:	3a 30       	cpi	r19, 0x0A	; 10
 230:	78 f4       	brcc	.+30     	; 0x250 <vfprintf+0xb8>
 232:	26 ff       	sbrs	r18, 6
 234:	06 c0       	rjmp	.+12     	; 0x242 <vfprintf+0xaa>
 236:	fa e0       	ldi	r31, 0x0A	; 10
 238:	1f 9f       	mul	r17, r31
 23a:	30 0d       	add	r19, r0
 23c:	11 24       	eor	r1, r1
 23e:	13 2f       	mov	r17, r19
 240:	13 c0       	rjmp	.+38     	; 0x268 <vfprintf+0xd0>
 242:	6a e0       	ldi	r22, 0x0A	; 10
 244:	56 9e       	mul	r5, r22
 246:	30 0d       	add	r19, r0
 248:	11 24       	eor	r1, r1
 24a:	53 2e       	mov	r5, r19
 24c:	20 62       	ori	r18, 0x20	; 32
 24e:	0c c0       	rjmp	.+24     	; 0x268 <vfprintf+0xd0>
 250:	8e 32       	cpi	r24, 0x2E	; 46
 252:	21 f4       	brne	.+8      	; 0x25c <vfprintf+0xc4>
 254:	26 fd       	sbrc	r18, 6
 256:	11 c3       	rjmp	.+1570   	; 0x87a <vfprintf+0x6e2>
 258:	20 64       	ori	r18, 0x40	; 64
 25a:	06 c0       	rjmp	.+12     	; 0x268 <vfprintf+0xd0>
 25c:	8c 36       	cpi	r24, 0x6C	; 108
 25e:	11 f4       	brne	.+4      	; 0x264 <vfprintf+0xcc>
 260:	20 68       	ori	r18, 0x80	; 128
 262:	02 c0       	rjmp	.+4      	; 0x268 <vfprintf+0xd0>
 264:	88 36       	cpi	r24, 0x68	; 104
 266:	41 f4       	brne	.+16     	; 0x278 <vfprintf+0xe0>
 268:	f1 01       	movw	r30, r2
 26a:	93 fd       	sbrc	r25, 3
 26c:	85 91       	lpm	r24, Z+
 26e:	93 ff       	sbrs	r25, 3
 270:	81 91       	ld	r24, Z+
 272:	1f 01       	movw	r2, r30
 274:	81 11       	cpse	r24, r1
 276:	c1 cf       	rjmp	.-126    	; 0x1fa <vfprintf+0x62>
 278:	9b eb       	ldi	r25, 0xBB	; 187
 27a:	98 0f       	add	r25, r24
 27c:	93 30       	cpi	r25, 0x03	; 3
 27e:	18 f4       	brcc	.+6      	; 0x286 <vfprintf+0xee>
 280:	20 61       	ori	r18, 0x10	; 16
 282:	80 5e       	subi	r24, 0xE0	; 224
 284:	06 c0       	rjmp	.+12     	; 0x292 <vfprintf+0xfa>
 286:	9b e9       	ldi	r25, 0x9B	; 155
 288:	98 0f       	add	r25, r24
 28a:	93 30       	cpi	r25, 0x03	; 3
 28c:	08 f0       	brcs	.+2      	; 0x290 <vfprintf+0xf8>
 28e:	aa c1       	rjmp	.+852    	; 0x5e4 <vfprintf+0x44c>
 290:	2f 7e       	andi	r18, 0xEF	; 239
 292:	26 ff       	sbrs	r18, 6
 294:	16 e0       	ldi	r17, 0x06	; 6
 296:	2f 73       	andi	r18, 0x3F	; 63
 298:	72 2e       	mov	r7, r18
 29a:	85 36       	cpi	r24, 0x65	; 101
 29c:	21 f4       	brne	.+8      	; 0x2a6 <vfprintf+0x10e>
 29e:	f2 2f       	mov	r31, r18
 2a0:	f0 64       	ori	r31, 0x40	; 64
 2a2:	7f 2e       	mov	r7, r31
 2a4:	08 c0       	rjmp	.+16     	; 0x2b6 <vfprintf+0x11e>
 2a6:	86 36       	cpi	r24, 0x66	; 102
 2a8:	21 f4       	brne	.+8      	; 0x2b2 <vfprintf+0x11a>
 2aa:	62 2f       	mov	r22, r18
 2ac:	60 68       	ori	r22, 0x80	; 128
 2ae:	76 2e       	mov	r7, r22
 2b0:	02 c0       	rjmp	.+4      	; 0x2b6 <vfprintf+0x11e>
 2b2:	11 11       	cpse	r17, r1
 2b4:	11 50       	subi	r17, 0x01	; 1
 2b6:	77 fe       	sbrs	r7, 7
 2b8:	07 c0       	rjmp	.+14     	; 0x2c8 <vfprintf+0x130>
 2ba:	1c 33       	cpi	r17, 0x3C	; 60
 2bc:	48 f4       	brcc	.+18     	; 0x2d0 <vfprintf+0x138>
 2be:	44 24       	eor	r4, r4
 2c0:	43 94       	inc	r4
 2c2:	41 0e       	add	r4, r17
 2c4:	27 e0       	ldi	r18, 0x07	; 7
 2c6:	0b c0       	rjmp	.+22     	; 0x2de <vfprintf+0x146>
 2c8:	18 30       	cpi	r17, 0x08	; 8
 2ca:	30 f4       	brcc	.+12     	; 0x2d8 <vfprintf+0x140>
 2cc:	21 2f       	mov	r18, r17
 2ce:	06 c0       	rjmp	.+12     	; 0x2dc <vfprintf+0x144>
 2d0:	27 e0       	ldi	r18, 0x07	; 7
 2d2:	4c e3       	ldi	r20, 0x3C	; 60
 2d4:	44 2e       	mov	r4, r20
 2d6:	03 c0       	rjmp	.+6      	; 0x2de <vfprintf+0x146>
 2d8:	27 e0       	ldi	r18, 0x07	; 7
 2da:	17 e0       	ldi	r17, 0x07	; 7
 2dc:	41 2c       	mov	r4, r1
 2de:	56 01       	movw	r10, r12
 2e0:	74 e0       	ldi	r23, 0x04	; 4
 2e2:	a7 0e       	add	r10, r23
 2e4:	b1 1c       	adc	r11, r1
 2e6:	f6 01       	movw	r30, r12
 2e8:	60 81       	ld	r22, Z
 2ea:	71 81       	ldd	r23, Z+1	; 0x01
 2ec:	82 81       	ldd	r24, Z+2	; 0x02
 2ee:	93 81       	ldd	r25, Z+3	; 0x03
 2f0:	04 2d       	mov	r16, r4
 2f2:	a4 01       	movw	r20, r8
 2f4:	0e 94 8f 05 	call	0xb1e	; 0xb1e <__ftoa_engine>
 2f8:	6c 01       	movw	r12, r24
 2fa:	09 81       	ldd	r16, Y+1	; 0x01
 2fc:	00 ff       	sbrs	r16, 0
 2fe:	02 c0       	rjmp	.+4      	; 0x304 <vfprintf+0x16c>
 300:	03 ff       	sbrs	r16, 3
 302:	06 c0       	rjmp	.+12     	; 0x310 <vfprintf+0x178>
 304:	71 fc       	sbrc	r7, 1
 306:	07 c0       	rjmp	.+14     	; 0x316 <vfprintf+0x17e>
 308:	72 fc       	sbrc	r7, 2
 30a:	08 c0       	rjmp	.+16     	; 0x31c <vfprintf+0x184>
 30c:	61 2c       	mov	r6, r1
 30e:	08 c0       	rjmp	.+16     	; 0x320 <vfprintf+0x188>
 310:	3d e2       	ldi	r19, 0x2D	; 45
 312:	63 2e       	mov	r6, r19
 314:	05 c0       	rjmp	.+10     	; 0x320 <vfprintf+0x188>
 316:	2b e2       	ldi	r18, 0x2B	; 43
 318:	62 2e       	mov	r6, r18
 31a:	02 c0       	rjmp	.+4      	; 0x320 <vfprintf+0x188>
 31c:	90 e2       	ldi	r25, 0x20	; 32
 31e:	69 2e       	mov	r6, r25
 320:	80 2f       	mov	r24, r16
 322:	8c 70       	andi	r24, 0x0C	; 12
 324:	99 f1       	breq	.+102    	; 0x38c <vfprintf+0x1f4>
 326:	66 20       	and	r6, r6
 328:	11 f0       	breq	.+4      	; 0x32e <vfprintf+0x196>
 32a:	84 e0       	ldi	r24, 0x04	; 4
 32c:	01 c0       	rjmp	.+2      	; 0x330 <vfprintf+0x198>
 32e:	83 e0       	ldi	r24, 0x03	; 3
 330:	85 15       	cp	r24, r5
 332:	10 f0       	brcs	.+4      	; 0x338 <vfprintf+0x1a0>
 334:	51 2c       	mov	r5, r1
 336:	0b c0       	rjmp	.+22     	; 0x34e <vfprintf+0x1b6>
 338:	58 1a       	sub	r5, r24
 33a:	73 fc       	sbrc	r7, 3
 33c:	08 c0       	rjmp	.+16     	; 0x34e <vfprintf+0x1b6>
 33e:	b7 01       	movw	r22, r14
 340:	80 e2       	ldi	r24, 0x20	; 32
 342:	90 e0       	ldi	r25, 0x00	; 0
 344:	0e 94 7d 06 	call	0xcfa	; 0xcfa <fputc>
 348:	5a 94       	dec	r5
 34a:	c9 f7       	brne	.-14     	; 0x33e <vfprintf+0x1a6>
 34c:	f3 cf       	rjmp	.-26     	; 0x334 <vfprintf+0x19c>
 34e:	66 20       	and	r6, r6
 350:	29 f0       	breq	.+10     	; 0x35c <vfprintf+0x1c4>
 352:	b7 01       	movw	r22, r14
 354:	86 2d       	mov	r24, r6
 356:	90 e0       	ldi	r25, 0x00	; 0
 358:	0e 94 7d 06 	call	0xcfa	; 0xcfa <fputc>
 35c:	03 fd       	sbrc	r16, 3
 35e:	03 c0       	rjmp	.+6      	; 0x366 <vfprintf+0x1ce>
 360:	0c e6       	ldi	r16, 0x6C	; 108
 362:	10 e0       	ldi	r17, 0x00	; 0
 364:	02 c0       	rjmp	.+4      	; 0x36a <vfprintf+0x1d2>
 366:	08 e6       	ldi	r16, 0x68	; 104
 368:	10 e0       	ldi	r17, 0x00	; 0
 36a:	f7 2d       	mov	r31, r7
 36c:	f0 71       	andi	r31, 0x10	; 16
 36e:	7f 2e       	mov	r7, r31
 370:	f8 01       	movw	r30, r16
 372:	84 91       	lpm	r24, Z
 374:	88 23       	and	r24, r24
 376:	09 f4       	brne	.+2      	; 0x37a <vfprintf+0x1e2>
 378:	76 c2       	rjmp	.+1260   	; 0x866 <vfprintf+0x6ce>
 37a:	71 10       	cpse	r7, r1
 37c:	80 52       	subi	r24, 0x20	; 32
 37e:	b7 01       	movw	r22, r14
 380:	90 e0       	ldi	r25, 0x00	; 0
 382:	0e 94 7d 06 	call	0xcfa	; 0xcfa <fputc>
 386:	0f 5f       	subi	r16, 0xFF	; 255
 388:	1f 4f       	sbci	r17, 0xFF	; 255
 38a:	f2 cf       	rjmp	.-28     	; 0x370 <vfprintf+0x1d8>
 38c:	77 fe       	sbrs	r7, 7
 38e:	0f c0       	rjmp	.+30     	; 0x3ae <vfprintf+0x216>
 390:	4c 0c       	add	r4, r12
 392:	04 ff       	sbrs	r16, 4
 394:	04 c0       	rjmp	.+8      	; 0x39e <vfprintf+0x206>
 396:	8a 81       	ldd	r24, Y+2	; 0x02
 398:	81 33       	cpi	r24, 0x31	; 49
 39a:	09 f4       	brne	.+2      	; 0x39e <vfprintf+0x206>
 39c:	4a 94       	dec	r4
 39e:	14 14       	cp	r1, r4
 3a0:	74 f5       	brge	.+92     	; 0x3fe <vfprintf+0x266>
 3a2:	f8 e0       	ldi	r31, 0x08	; 8
 3a4:	f4 15       	cp	r31, r4
 3a6:	78 f5       	brcc	.+94     	; 0x406 <vfprintf+0x26e>
 3a8:	88 e0       	ldi	r24, 0x08	; 8
 3aa:	48 2e       	mov	r4, r24
 3ac:	2c c0       	rjmp	.+88     	; 0x406 <vfprintf+0x26e>
 3ae:	76 fc       	sbrc	r7, 6
 3b0:	2a c0       	rjmp	.+84     	; 0x406 <vfprintf+0x26e>
 3b2:	81 2f       	mov	r24, r17
 3b4:	90 e0       	ldi	r25, 0x00	; 0
 3b6:	8c 15       	cp	r24, r12
 3b8:	9d 05       	cpc	r25, r13
 3ba:	9c f0       	brlt	.+38     	; 0x3e2 <vfprintf+0x24a>
 3bc:	6c ef       	ldi	r22, 0xFC	; 252
 3be:	c6 16       	cp	r12, r22
 3c0:	6f ef       	ldi	r22, 0xFF	; 255
 3c2:	d6 06       	cpc	r13, r22
 3c4:	74 f0       	brlt	.+28     	; 0x3e2 <vfprintf+0x24a>
 3c6:	77 2d       	mov	r23, r7
 3c8:	70 68       	ori	r23, 0x80	; 128
 3ca:	77 2e       	mov	r7, r23
 3cc:	0a c0       	rjmp	.+20     	; 0x3e2 <vfprintf+0x24a>
 3ce:	e2 e0       	ldi	r30, 0x02	; 2
 3d0:	f0 e0       	ldi	r31, 0x00	; 0
 3d2:	ec 0f       	add	r30, r28
 3d4:	fd 1f       	adc	r31, r29
 3d6:	e1 0f       	add	r30, r17
 3d8:	f1 1d       	adc	r31, r1
 3da:	80 81       	ld	r24, Z
 3dc:	80 33       	cpi	r24, 0x30	; 48
 3de:	19 f4       	brne	.+6      	; 0x3e6 <vfprintf+0x24e>
 3e0:	11 50       	subi	r17, 0x01	; 1
 3e2:	11 11       	cpse	r17, r1
 3e4:	f4 cf       	rjmp	.-24     	; 0x3ce <vfprintf+0x236>
 3e6:	77 fe       	sbrs	r7, 7
 3e8:	0e c0       	rjmp	.+28     	; 0x406 <vfprintf+0x26e>
 3ea:	44 24       	eor	r4, r4
 3ec:	43 94       	inc	r4
 3ee:	41 0e       	add	r4, r17
 3f0:	81 2f       	mov	r24, r17
 3f2:	90 e0       	ldi	r25, 0x00	; 0
 3f4:	c8 16       	cp	r12, r24
 3f6:	d9 06       	cpc	r13, r25
 3f8:	2c f4       	brge	.+10     	; 0x404 <vfprintf+0x26c>
 3fa:	1c 19       	sub	r17, r12
 3fc:	04 c0       	rjmp	.+8      	; 0x406 <vfprintf+0x26e>
 3fe:	44 24       	eor	r4, r4
 400:	43 94       	inc	r4
 402:	01 c0       	rjmp	.+2      	; 0x406 <vfprintf+0x26e>
 404:	10 e0       	ldi	r17, 0x00	; 0
 406:	77 fe       	sbrs	r7, 7
 408:	07 c0       	rjmp	.+14     	; 0x418 <vfprintf+0x280>
 40a:	1c 14       	cp	r1, r12
 40c:	1d 04       	cpc	r1, r13
 40e:	3c f4       	brge	.+14     	; 0x41e <vfprintf+0x286>
 410:	96 01       	movw	r18, r12
 412:	2f 5f       	subi	r18, 0xFF	; 255
 414:	3f 4f       	sbci	r19, 0xFF	; 255
 416:	05 c0       	rjmp	.+10     	; 0x422 <vfprintf+0x28a>
 418:	25 e0       	ldi	r18, 0x05	; 5
 41a:	30 e0       	ldi	r19, 0x00	; 0
 41c:	02 c0       	rjmp	.+4      	; 0x422 <vfprintf+0x28a>
 41e:	21 e0       	ldi	r18, 0x01	; 1
 420:	30 e0       	ldi	r19, 0x00	; 0
 422:	66 20       	and	r6, r6
 424:	11 f0       	breq	.+4      	; 0x42a <vfprintf+0x292>
 426:	2f 5f       	subi	r18, 0xFF	; 255
 428:	3f 4f       	sbci	r19, 0xFF	; 255
 42a:	11 23       	and	r17, r17
 42c:	31 f0       	breq	.+12     	; 0x43a <vfprintf+0x2a2>
 42e:	41 2f       	mov	r20, r17
 430:	50 e0       	ldi	r21, 0x00	; 0
 432:	4f 5f       	subi	r20, 0xFF	; 255
 434:	5f 4f       	sbci	r21, 0xFF	; 255
 436:	24 0f       	add	r18, r20
 438:	35 1f       	adc	r19, r21
 43a:	45 2d       	mov	r20, r5
 43c:	50 e0       	ldi	r21, 0x00	; 0
 43e:	24 17       	cp	r18, r20
 440:	35 07       	cpc	r19, r21
 442:	14 f4       	brge	.+4      	; 0x448 <vfprintf+0x2b0>
 444:	52 1a       	sub	r5, r18
 446:	01 c0       	rjmp	.+2      	; 0x44a <vfprintf+0x2b2>
 448:	51 2c       	mov	r5, r1
 44a:	87 2d       	mov	r24, r7
 44c:	89 70       	andi	r24, 0x09	; 9
 44e:	49 f4       	brne	.+18     	; 0x462 <vfprintf+0x2ca>
 450:	55 20       	and	r5, r5
 452:	39 f0       	breq	.+14     	; 0x462 <vfprintf+0x2ca>
 454:	b7 01       	movw	r22, r14
 456:	80 e2       	ldi	r24, 0x20	; 32
 458:	90 e0       	ldi	r25, 0x00	; 0
 45a:	0e 94 7d 06 	call	0xcfa	; 0xcfa <fputc>
 45e:	5a 94       	dec	r5
 460:	f7 cf       	rjmp	.-18     	; 0x450 <vfprintf+0x2b8>
 462:	66 20       	and	r6, r6
 464:	29 f0       	breq	.+10     	; 0x470 <vfprintf+0x2d8>
 466:	b7 01       	movw	r22, r14
 468:	86 2d       	mov	r24, r6
 46a:	90 e0       	ldi	r25, 0x00	; 0
 46c:	0e 94 7d 06 	call	0xcfa	; 0xcfa <fputc>
 470:	73 fc       	sbrc	r7, 3
 472:	09 c0       	rjmp	.+18     	; 0x486 <vfprintf+0x2ee>
 474:	55 20       	and	r5, r5
 476:	39 f0       	breq	.+14     	; 0x486 <vfprintf+0x2ee>
 478:	b7 01       	movw	r22, r14
 47a:	80 e3       	ldi	r24, 0x30	; 48
 47c:	90 e0       	ldi	r25, 0x00	; 0
 47e:	0e 94 7d 06 	call	0xcfa	; 0xcfa <fputc>
 482:	5a 94       	dec	r5
 484:	f7 cf       	rjmp	.-18     	; 0x474 <vfprintf+0x2dc>
 486:	77 fe       	sbrs	r7, 7
 488:	5f c0       	rjmp	.+190    	; 0x548 <vfprintf+0x3b0>
 48a:	9c 2d       	mov	r25, r12
 48c:	8d 2d       	mov	r24, r13
 48e:	d7 fe       	sbrs	r13, 7
 490:	02 c0       	rjmp	.+4      	; 0x496 <vfprintf+0x2fe>
 492:	90 e0       	ldi	r25, 0x00	; 0
 494:	80 e0       	ldi	r24, 0x00	; 0
 496:	69 2e       	mov	r6, r25
 498:	78 2e       	mov	r7, r24
 49a:	40 e0       	ldi	r20, 0x00	; 0
 49c:	50 e0       	ldi	r21, 0x00	; 0
 49e:	c6 01       	movw	r24, r12
 4a0:	84 19       	sub	r24, r4
 4a2:	91 09       	sbc	r25, r1
 4a4:	9d 87       	std	Y+13, r25	; 0x0d
 4a6:	8c 87       	std	Y+12, r24	; 0x0c
 4a8:	96 01       	movw	r18, r12
 4aa:	26 19       	sub	r18, r6
 4ac:	37 09       	sbc	r19, r7
 4ae:	28 0d       	add	r18, r8
 4b0:	39 1d       	adc	r19, r9
 4b2:	81 2f       	mov	r24, r17
 4b4:	90 e0       	ldi	r25, 0x00	; 0
 4b6:	ee 27       	eor	r30, r30
 4b8:	ff 27       	eor	r31, r31
 4ba:	e8 1b       	sub	r30, r24
 4bc:	f9 0b       	sbc	r31, r25
 4be:	ff 87       	std	Y+15, r31	; 0x0f
 4c0:	ee 87       	std	Y+14, r30	; 0x0e
 4c2:	ff ef       	ldi	r31, 0xFF	; 255
 4c4:	6f 16       	cp	r6, r31
 4c6:	7f 06       	cpc	r7, r31
 4c8:	69 f4       	brne	.+26     	; 0x4e4 <vfprintf+0x34c>
 4ca:	b7 01       	movw	r22, r14
 4cc:	8e e2       	ldi	r24, 0x2E	; 46
 4ce:	90 e0       	ldi	r25, 0x00	; 0
 4d0:	2b 8b       	std	Y+19, r18	; 0x13
 4d2:	3a 8b       	std	Y+18, r19	; 0x12
 4d4:	48 8b       	std	Y+16, r20	; 0x10
 4d6:	59 8b       	std	Y+17, r21	; 0x11
 4d8:	0e 94 7d 06 	call	0xcfa	; 0xcfa <fputc>
 4dc:	59 89       	ldd	r21, Y+17	; 0x11
 4de:	48 89       	ldd	r20, Y+16	; 0x10
 4e0:	3a 89       	ldd	r19, Y+18	; 0x12
 4e2:	2b 89       	ldd	r18, Y+19	; 0x13
 4e4:	c6 14       	cp	r12, r6
 4e6:	d7 04       	cpc	r13, r7
 4e8:	54 f0       	brlt	.+20     	; 0x4fe <vfprintf+0x366>
 4ea:	6c 85       	ldd	r22, Y+12	; 0x0c
 4ec:	7d 85       	ldd	r23, Y+13	; 0x0d
 4ee:	66 15       	cp	r22, r6
 4f0:	77 05       	cpc	r23, r7
 4f2:	2c f4       	brge	.+10     	; 0x4fe <vfprintf+0x366>
 4f4:	f9 01       	movw	r30, r18
 4f6:	e4 0f       	add	r30, r20
 4f8:	f5 1f       	adc	r31, r21
 4fa:	81 81       	ldd	r24, Z+1	; 0x01
 4fc:	01 c0       	rjmp	.+2      	; 0x500 <vfprintf+0x368>
 4fe:	80 e3       	ldi	r24, 0x30	; 48
 500:	71 e0       	ldi	r23, 0x01	; 1
 502:	67 1a       	sub	r6, r23
 504:	71 08       	sbc	r7, r1
 506:	4f 5f       	subi	r20, 0xFF	; 255
 508:	5f 4f       	sbci	r21, 0xFF	; 255
 50a:	ee 85       	ldd	r30, Y+14	; 0x0e
 50c:	ff 85       	ldd	r31, Y+15	; 0x0f
 50e:	6e 16       	cp	r6, r30
 510:	7f 06       	cpc	r7, r31
 512:	6c f0       	brlt	.+26     	; 0x52e <vfprintf+0x396>
 514:	b7 01       	movw	r22, r14
 516:	90 e0       	ldi	r25, 0x00	; 0
 518:	2b 8b       	std	Y+19, r18	; 0x13
 51a:	3a 8b       	std	Y+18, r19	; 0x12
 51c:	48 8b       	std	Y+16, r20	; 0x10
 51e:	59 8b       	std	Y+17, r21	; 0x11
 520:	0e 94 7d 06 	call	0xcfa	; 0xcfa <fputc>
 524:	2b 89       	ldd	r18, Y+19	; 0x13
 526:	3a 89       	ldd	r19, Y+18	; 0x12
 528:	48 89       	ldd	r20, Y+16	; 0x10
 52a:	59 89       	ldd	r21, Y+17	; 0x11
 52c:	ca cf       	rjmp	.-108    	; 0x4c2 <vfprintf+0x32a>
 52e:	6c 14       	cp	r6, r12
 530:	7d 04       	cpc	r7, r13
 532:	39 f4       	brne	.+14     	; 0x542 <vfprintf+0x3aa>
 534:	9a 81       	ldd	r25, Y+2	; 0x02
 536:	96 33       	cpi	r25, 0x36	; 54
 538:	18 f4       	brcc	.+6      	; 0x540 <vfprintf+0x3a8>
 53a:	95 33       	cpi	r25, 0x35	; 53
 53c:	11 f4       	brne	.+4      	; 0x542 <vfprintf+0x3aa>
 53e:	04 ff       	sbrs	r16, 4
 540:	81 e3       	ldi	r24, 0x31	; 49
 542:	b7 01       	movw	r22, r14
 544:	90 e0       	ldi	r25, 0x00	; 0
 546:	4b c0       	rjmp	.+150    	; 0x5de <vfprintf+0x446>
 548:	8a 81       	ldd	r24, Y+2	; 0x02
 54a:	81 33       	cpi	r24, 0x31	; 49
 54c:	09 f0       	breq	.+2      	; 0x550 <vfprintf+0x3b8>
 54e:	0f 7e       	andi	r16, 0xEF	; 239
 550:	b7 01       	movw	r22, r14
 552:	90 e0       	ldi	r25, 0x00	; 0
 554:	0e 94 7d 06 	call	0xcfa	; 0xcfa <fputc>
 558:	11 11       	cpse	r17, r1
 55a:	05 c0       	rjmp	.+10     	; 0x566 <vfprintf+0x3ce>
 55c:	74 fe       	sbrs	r7, 4
 55e:	18 c0       	rjmp	.+48     	; 0x590 <vfprintf+0x3f8>
 560:	85 e4       	ldi	r24, 0x45	; 69
 562:	90 e0       	ldi	r25, 0x00	; 0
 564:	17 c0       	rjmp	.+46     	; 0x594 <vfprintf+0x3fc>
 566:	b7 01       	movw	r22, r14
 568:	8e e2       	ldi	r24, 0x2E	; 46
 56a:	90 e0       	ldi	r25, 0x00	; 0
 56c:	0e 94 7d 06 	call	0xcfa	; 0xcfa <fputc>
 570:	82 e0       	ldi	r24, 0x02	; 2
 572:	66 24       	eor	r6, r6
 574:	63 94       	inc	r6
 576:	68 0e       	add	r6, r24
 578:	f4 01       	movw	r30, r8
 57a:	e8 0f       	add	r30, r24
 57c:	f1 1d       	adc	r31, r1
 57e:	80 81       	ld	r24, Z
 580:	b7 01       	movw	r22, r14
 582:	90 e0       	ldi	r25, 0x00	; 0
 584:	0e 94 7d 06 	call	0xcfa	; 0xcfa <fputc>
 588:	11 50       	subi	r17, 0x01	; 1
 58a:	41 f3       	breq	.-48     	; 0x55c <vfprintf+0x3c4>
 58c:	86 2d       	mov	r24, r6
 58e:	f1 cf       	rjmp	.-30     	; 0x572 <vfprintf+0x3da>
 590:	85 e6       	ldi	r24, 0x65	; 101
 592:	90 e0       	ldi	r25, 0x00	; 0
 594:	b7 01       	movw	r22, r14
 596:	0e 94 7d 06 	call	0xcfa	; 0xcfa <fputc>
 59a:	d7 fc       	sbrc	r13, 7
 59c:	05 c0       	rjmp	.+10     	; 0x5a8 <vfprintf+0x410>
 59e:	c1 14       	cp	r12, r1
 5a0:	d1 04       	cpc	r13, r1
 5a2:	39 f4       	brne	.+14     	; 0x5b2 <vfprintf+0x41a>
 5a4:	04 ff       	sbrs	r16, 4
 5a6:	05 c0       	rjmp	.+10     	; 0x5b2 <vfprintf+0x41a>
 5a8:	d1 94       	neg	r13
 5aa:	c1 94       	neg	r12
 5ac:	d1 08       	sbc	r13, r1
 5ae:	8d e2       	ldi	r24, 0x2D	; 45
 5b0:	01 c0       	rjmp	.+2      	; 0x5b4 <vfprintf+0x41c>
 5b2:	8b e2       	ldi	r24, 0x2B	; 43
 5b4:	b7 01       	movw	r22, r14
 5b6:	90 e0       	ldi	r25, 0x00	; 0
 5b8:	0e 94 7d 06 	call	0xcfa	; 0xcfa <fputc>
 5bc:	80 e3       	ldi	r24, 0x30	; 48
 5be:	6a e0       	ldi	r22, 0x0A	; 10
 5c0:	c6 16       	cp	r12, r22
 5c2:	d1 04       	cpc	r13, r1
 5c4:	2c f0       	brlt	.+10     	; 0x5d0 <vfprintf+0x438>
 5c6:	8f 5f       	subi	r24, 0xFF	; 255
 5c8:	fa e0       	ldi	r31, 0x0A	; 10
 5ca:	cf 1a       	sub	r12, r31
 5cc:	d1 08       	sbc	r13, r1
 5ce:	f7 cf       	rjmp	.-18     	; 0x5be <vfprintf+0x426>
 5d0:	b7 01       	movw	r22, r14
 5d2:	90 e0       	ldi	r25, 0x00	; 0
 5d4:	0e 94 7d 06 	call	0xcfa	; 0xcfa <fputc>
 5d8:	b7 01       	movw	r22, r14
 5da:	c6 01       	movw	r24, r12
 5dc:	c0 96       	adiw	r24, 0x30	; 48
 5de:	0e 94 7d 06 	call	0xcfa	; 0xcfa <fputc>
 5e2:	41 c1       	rjmp	.+642    	; 0x866 <vfprintf+0x6ce>
 5e4:	83 36       	cpi	r24, 0x63	; 99
 5e6:	31 f0       	breq	.+12     	; 0x5f4 <vfprintf+0x45c>
 5e8:	83 37       	cpi	r24, 0x73	; 115
 5ea:	79 f0       	breq	.+30     	; 0x60a <vfprintf+0x472>
 5ec:	83 35       	cpi	r24, 0x53	; 83
 5ee:	09 f0       	breq	.+2      	; 0x5f2 <vfprintf+0x45a>
 5f0:	58 c0       	rjmp	.+176    	; 0x6a2 <vfprintf+0x50a>
 5f2:	21 c0       	rjmp	.+66     	; 0x636 <vfprintf+0x49e>
 5f4:	56 01       	movw	r10, r12
 5f6:	72 e0       	ldi	r23, 0x02	; 2
 5f8:	a7 0e       	add	r10, r23
 5fa:	b1 1c       	adc	r11, r1
 5fc:	f6 01       	movw	r30, r12
 5fe:	80 81       	ld	r24, Z
 600:	89 83       	std	Y+1, r24	; 0x01
 602:	01 e0       	ldi	r16, 0x01	; 1
 604:	10 e0       	ldi	r17, 0x00	; 0
 606:	64 01       	movw	r12, r8
 608:	14 c0       	rjmp	.+40     	; 0x632 <vfprintf+0x49a>
 60a:	56 01       	movw	r10, r12
 60c:	f2 e0       	ldi	r31, 0x02	; 2
 60e:	af 0e       	add	r10, r31
 610:	b1 1c       	adc	r11, r1
 612:	f6 01       	movw	r30, r12
 614:	c0 80       	ld	r12, Z
 616:	d1 80       	ldd	r13, Z+1	; 0x01
 618:	26 ff       	sbrs	r18, 6
 61a:	03 c0       	rjmp	.+6      	; 0x622 <vfprintf+0x48a>
 61c:	61 2f       	mov	r22, r17
 61e:	70 e0       	ldi	r23, 0x00	; 0
 620:	02 c0       	rjmp	.+4      	; 0x626 <vfprintf+0x48e>
 622:	6f ef       	ldi	r22, 0xFF	; 255
 624:	7f ef       	ldi	r23, 0xFF	; 255
 626:	c6 01       	movw	r24, r12
 628:	2b 8b       	std	Y+19, r18	; 0x13
 62a:	0e 94 72 06 	call	0xce4	; 0xce4 <strnlen>
 62e:	8c 01       	movw	r16, r24
 630:	2b 89       	ldd	r18, Y+19	; 0x13
 632:	2f 77       	andi	r18, 0x7F	; 127
 634:	15 c0       	rjmp	.+42     	; 0x660 <vfprintf+0x4c8>
 636:	56 01       	movw	r10, r12
 638:	f2 e0       	ldi	r31, 0x02	; 2
 63a:	af 0e       	add	r10, r31
 63c:	b1 1c       	adc	r11, r1
 63e:	f6 01       	movw	r30, r12
 640:	c0 80       	ld	r12, Z
 642:	d1 80       	ldd	r13, Z+1	; 0x01
 644:	26 ff       	sbrs	r18, 6
 646:	03 c0       	rjmp	.+6      	; 0x64e <vfprintf+0x4b6>
 648:	61 2f       	mov	r22, r17
 64a:	70 e0       	ldi	r23, 0x00	; 0
 64c:	02 c0       	rjmp	.+4      	; 0x652 <vfprintf+0x4ba>
 64e:	6f ef       	ldi	r22, 0xFF	; 255
 650:	7f ef       	ldi	r23, 0xFF	; 255
 652:	c6 01       	movw	r24, r12
 654:	2b 8b       	std	Y+19, r18	; 0x13
 656:	0e 94 67 06 	call	0xcce	; 0xcce <strnlen_P>
 65a:	8c 01       	movw	r16, r24
 65c:	2b 89       	ldd	r18, Y+19	; 0x13
 65e:	20 68       	ori	r18, 0x80	; 128
 660:	72 2e       	mov	r7, r18
 662:	23 fd       	sbrc	r18, 3
 664:	1a c0       	rjmp	.+52     	; 0x69a <vfprintf+0x502>
 666:	85 2d       	mov	r24, r5
 668:	90 e0       	ldi	r25, 0x00	; 0
 66a:	08 17       	cp	r16, r24
 66c:	19 07       	cpc	r17, r25
 66e:	a8 f4       	brcc	.+42     	; 0x69a <vfprintf+0x502>
 670:	b7 01       	movw	r22, r14
 672:	80 e2       	ldi	r24, 0x20	; 32
 674:	90 e0       	ldi	r25, 0x00	; 0
 676:	0e 94 7d 06 	call	0xcfa	; 0xcfa <fputc>
 67a:	5a 94       	dec	r5
 67c:	f4 cf       	rjmp	.-24     	; 0x666 <vfprintf+0x4ce>
 67e:	f6 01       	movw	r30, r12
 680:	77 fc       	sbrc	r7, 7
 682:	85 91       	lpm	r24, Z+
 684:	77 fe       	sbrs	r7, 7
 686:	81 91       	ld	r24, Z+
 688:	6f 01       	movw	r12, r30
 68a:	b7 01       	movw	r22, r14
 68c:	90 e0       	ldi	r25, 0x00	; 0
 68e:	0e 94 7d 06 	call	0xcfa	; 0xcfa <fputc>
 692:	51 10       	cpse	r5, r1
 694:	5a 94       	dec	r5
 696:	01 50       	subi	r16, 0x01	; 1
 698:	11 09       	sbc	r17, r1
 69a:	01 15       	cp	r16, r1
 69c:	11 05       	cpc	r17, r1
 69e:	79 f7       	brne	.-34     	; 0x67e <vfprintf+0x4e6>
 6a0:	e2 c0       	rjmp	.+452    	; 0x866 <vfprintf+0x6ce>
 6a2:	84 36       	cpi	r24, 0x64	; 100
 6a4:	11 f0       	breq	.+4      	; 0x6aa <vfprintf+0x512>
 6a6:	89 36       	cpi	r24, 0x69	; 105
 6a8:	51 f5       	brne	.+84     	; 0x6fe <vfprintf+0x566>
 6aa:	56 01       	movw	r10, r12
 6ac:	27 ff       	sbrs	r18, 7
 6ae:	09 c0       	rjmp	.+18     	; 0x6c2 <vfprintf+0x52a>
 6b0:	f4 e0       	ldi	r31, 0x04	; 4
 6b2:	af 0e       	add	r10, r31
 6b4:	b1 1c       	adc	r11, r1
 6b6:	f6 01       	movw	r30, r12
 6b8:	60 81       	ld	r22, Z
 6ba:	71 81       	ldd	r23, Z+1	; 0x01
 6bc:	82 81       	ldd	r24, Z+2	; 0x02
 6be:	93 81       	ldd	r25, Z+3	; 0x03
 6c0:	0a c0       	rjmp	.+20     	; 0x6d6 <vfprintf+0x53e>
 6c2:	f2 e0       	ldi	r31, 0x02	; 2
 6c4:	af 0e       	add	r10, r31
 6c6:	b1 1c       	adc	r11, r1
 6c8:	f6 01       	movw	r30, r12
 6ca:	60 81       	ld	r22, Z
 6cc:	71 81       	ldd	r23, Z+1	; 0x01
 6ce:	88 27       	eor	r24, r24
 6d0:	77 fd       	sbrc	r23, 7
 6d2:	80 95       	com	r24
 6d4:	98 2f       	mov	r25, r24
 6d6:	02 2f       	mov	r16, r18
 6d8:	0f 76       	andi	r16, 0x6F	; 111
 6da:	97 ff       	sbrs	r25, 7
 6dc:	08 c0       	rjmp	.+16     	; 0x6ee <vfprintf+0x556>
 6de:	90 95       	com	r25
 6e0:	80 95       	com	r24
 6e2:	70 95       	com	r23
 6e4:	61 95       	neg	r22
 6e6:	7f 4f       	sbci	r23, 0xFF	; 255
 6e8:	8f 4f       	sbci	r24, 0xFF	; 255
 6ea:	9f 4f       	sbci	r25, 0xFF	; 255
 6ec:	00 68       	ori	r16, 0x80	; 128
 6ee:	2a e0       	ldi	r18, 0x0A	; 10
 6f0:	30 e0       	ldi	r19, 0x00	; 0
 6f2:	a4 01       	movw	r20, r8
 6f4:	0e 94 d1 06 	call	0xda2	; 0xda2 <__ultoa_invert>
 6f8:	c8 2e       	mov	r12, r24
 6fa:	c8 18       	sub	r12, r8
 6fc:	3e c0       	rjmp	.+124    	; 0x77a <vfprintf+0x5e2>
 6fe:	02 2f       	mov	r16, r18
 700:	85 37       	cpi	r24, 0x75	; 117
 702:	21 f4       	brne	.+8      	; 0x70c <vfprintf+0x574>
 704:	0f 7e       	andi	r16, 0xEF	; 239
 706:	2a e0       	ldi	r18, 0x0A	; 10
 708:	30 e0       	ldi	r19, 0x00	; 0
 70a:	1d c0       	rjmp	.+58     	; 0x746 <vfprintf+0x5ae>
 70c:	09 7f       	andi	r16, 0xF9	; 249
 70e:	8f 36       	cpi	r24, 0x6F	; 111
 710:	91 f0       	breq	.+36     	; 0x736 <vfprintf+0x59e>
 712:	18 f4       	brcc	.+6      	; 0x71a <vfprintf+0x582>
 714:	88 35       	cpi	r24, 0x58	; 88
 716:	59 f0       	breq	.+22     	; 0x72e <vfprintf+0x596>
 718:	b0 c0       	rjmp	.+352    	; 0x87a <vfprintf+0x6e2>
 71a:	80 37       	cpi	r24, 0x70	; 112
 71c:	19 f0       	breq	.+6      	; 0x724 <vfprintf+0x58c>
 71e:	88 37       	cpi	r24, 0x78	; 120
 720:	11 f0       	breq	.+4      	; 0x726 <vfprintf+0x58e>
 722:	ab c0       	rjmp	.+342    	; 0x87a <vfprintf+0x6e2>
 724:	00 61       	ori	r16, 0x10	; 16
 726:	04 ff       	sbrs	r16, 4
 728:	09 c0       	rjmp	.+18     	; 0x73c <vfprintf+0x5a4>
 72a:	04 60       	ori	r16, 0x04	; 4
 72c:	07 c0       	rjmp	.+14     	; 0x73c <vfprintf+0x5a4>
 72e:	24 ff       	sbrs	r18, 4
 730:	08 c0       	rjmp	.+16     	; 0x742 <vfprintf+0x5aa>
 732:	06 60       	ori	r16, 0x06	; 6
 734:	06 c0       	rjmp	.+12     	; 0x742 <vfprintf+0x5aa>
 736:	28 e0       	ldi	r18, 0x08	; 8
 738:	30 e0       	ldi	r19, 0x00	; 0
 73a:	05 c0       	rjmp	.+10     	; 0x746 <vfprintf+0x5ae>
 73c:	20 e1       	ldi	r18, 0x10	; 16
 73e:	30 e0       	ldi	r19, 0x00	; 0
 740:	02 c0       	rjmp	.+4      	; 0x746 <vfprintf+0x5ae>
 742:	20 e1       	ldi	r18, 0x10	; 16
 744:	32 e0       	ldi	r19, 0x02	; 2
 746:	56 01       	movw	r10, r12
 748:	07 ff       	sbrs	r16, 7
 74a:	09 c0       	rjmp	.+18     	; 0x75e <vfprintf+0x5c6>
 74c:	f4 e0       	ldi	r31, 0x04	; 4
 74e:	af 0e       	add	r10, r31
 750:	b1 1c       	adc	r11, r1
 752:	f6 01       	movw	r30, r12
 754:	60 81       	ld	r22, Z
 756:	71 81       	ldd	r23, Z+1	; 0x01
 758:	82 81       	ldd	r24, Z+2	; 0x02
 75a:	93 81       	ldd	r25, Z+3	; 0x03
 75c:	08 c0       	rjmp	.+16     	; 0x76e <vfprintf+0x5d6>
 75e:	f2 e0       	ldi	r31, 0x02	; 2
 760:	af 0e       	add	r10, r31
 762:	b1 1c       	adc	r11, r1
 764:	f6 01       	movw	r30, r12
 766:	60 81       	ld	r22, Z
 768:	71 81       	ldd	r23, Z+1	; 0x01
 76a:	80 e0       	ldi	r24, 0x00	; 0
 76c:	90 e0       	ldi	r25, 0x00	; 0
 76e:	a4 01       	movw	r20, r8
 770:	0e 94 d1 06 	call	0xda2	; 0xda2 <__ultoa_invert>
 774:	c8 2e       	mov	r12, r24
 776:	c8 18       	sub	r12, r8
 778:	0f 77       	andi	r16, 0x7F	; 127
 77a:	06 ff       	sbrs	r16, 6
 77c:	0b c0       	rjmp	.+22     	; 0x794 <vfprintf+0x5fc>
 77e:	20 2f       	mov	r18, r16
 780:	2e 7f       	andi	r18, 0xFE	; 254
 782:	c1 16       	cp	r12, r17
 784:	50 f4       	brcc	.+20     	; 0x79a <vfprintf+0x602>
 786:	04 ff       	sbrs	r16, 4
 788:	0a c0       	rjmp	.+20     	; 0x79e <vfprintf+0x606>
 78a:	02 fd       	sbrc	r16, 2
 78c:	08 c0       	rjmp	.+16     	; 0x79e <vfprintf+0x606>
 78e:	20 2f       	mov	r18, r16
 790:	2e 7e       	andi	r18, 0xEE	; 238
 792:	05 c0       	rjmp	.+10     	; 0x79e <vfprintf+0x606>
 794:	dc 2c       	mov	r13, r12
 796:	20 2f       	mov	r18, r16
 798:	03 c0       	rjmp	.+6      	; 0x7a0 <vfprintf+0x608>
 79a:	dc 2c       	mov	r13, r12
 79c:	01 c0       	rjmp	.+2      	; 0x7a0 <vfprintf+0x608>
 79e:	d1 2e       	mov	r13, r17
 7a0:	24 ff       	sbrs	r18, 4
 7a2:	0d c0       	rjmp	.+26     	; 0x7be <vfprintf+0x626>
 7a4:	fe 01       	movw	r30, r28
 7a6:	ec 0d       	add	r30, r12
 7a8:	f1 1d       	adc	r31, r1
 7aa:	80 81       	ld	r24, Z
 7ac:	80 33       	cpi	r24, 0x30	; 48
 7ae:	11 f4       	brne	.+4      	; 0x7b4 <vfprintf+0x61c>
 7b0:	29 7e       	andi	r18, 0xE9	; 233
 7b2:	09 c0       	rjmp	.+18     	; 0x7c6 <vfprintf+0x62e>
 7b4:	22 ff       	sbrs	r18, 2
 7b6:	06 c0       	rjmp	.+12     	; 0x7c4 <vfprintf+0x62c>
 7b8:	d3 94       	inc	r13
 7ba:	d3 94       	inc	r13
 7bc:	04 c0       	rjmp	.+8      	; 0x7c6 <vfprintf+0x62e>
 7be:	82 2f       	mov	r24, r18
 7c0:	86 78       	andi	r24, 0x86	; 134
 7c2:	09 f0       	breq	.+2      	; 0x7c6 <vfprintf+0x62e>
 7c4:	d3 94       	inc	r13
 7c6:	23 fd       	sbrc	r18, 3
 7c8:	13 c0       	rjmp	.+38     	; 0x7f0 <vfprintf+0x658>
 7ca:	20 ff       	sbrs	r18, 0
 7cc:	06 c0       	rjmp	.+12     	; 0x7da <vfprintf+0x642>
 7ce:	1c 2d       	mov	r17, r12
 7d0:	d5 14       	cp	r13, r5
 7d2:	18 f4       	brcc	.+6      	; 0x7da <vfprintf+0x642>
 7d4:	15 0d       	add	r17, r5
 7d6:	1d 19       	sub	r17, r13
 7d8:	d5 2c       	mov	r13, r5
 7da:	d5 14       	cp	r13, r5
 7dc:	68 f4       	brcc	.+26     	; 0x7f8 <vfprintf+0x660>
 7de:	b7 01       	movw	r22, r14
 7e0:	80 e2       	ldi	r24, 0x20	; 32
 7e2:	90 e0       	ldi	r25, 0x00	; 0
 7e4:	2b 8b       	std	Y+19, r18	; 0x13
 7e6:	0e 94 7d 06 	call	0xcfa	; 0xcfa <fputc>
 7ea:	d3 94       	inc	r13
 7ec:	2b 89       	ldd	r18, Y+19	; 0x13
 7ee:	f5 cf       	rjmp	.-22     	; 0x7da <vfprintf+0x642>
 7f0:	d5 14       	cp	r13, r5
 7f2:	10 f4       	brcc	.+4      	; 0x7f8 <vfprintf+0x660>
 7f4:	5d 18       	sub	r5, r13
 7f6:	01 c0       	rjmp	.+2      	; 0x7fa <vfprintf+0x662>
 7f8:	51 2c       	mov	r5, r1
 7fa:	24 ff       	sbrs	r18, 4
 7fc:	12 c0       	rjmp	.+36     	; 0x822 <vfprintf+0x68a>
 7fe:	b7 01       	movw	r22, r14
 800:	80 e3       	ldi	r24, 0x30	; 48
 802:	90 e0       	ldi	r25, 0x00	; 0
 804:	2b 8b       	std	Y+19, r18	; 0x13
 806:	0e 94 7d 06 	call	0xcfa	; 0xcfa <fputc>
 80a:	2b 89       	ldd	r18, Y+19	; 0x13
 80c:	22 ff       	sbrs	r18, 2
 80e:	17 c0       	rjmp	.+46     	; 0x83e <vfprintf+0x6a6>
 810:	21 ff       	sbrs	r18, 1
 812:	03 c0       	rjmp	.+6      	; 0x81a <vfprintf+0x682>
 814:	88 e5       	ldi	r24, 0x58	; 88
 816:	90 e0       	ldi	r25, 0x00	; 0
 818:	02 c0       	rjmp	.+4      	; 0x81e <vfprintf+0x686>
 81a:	88 e7       	ldi	r24, 0x78	; 120
 81c:	90 e0       	ldi	r25, 0x00	; 0
 81e:	b7 01       	movw	r22, r14
 820:	0c c0       	rjmp	.+24     	; 0x83a <vfprintf+0x6a2>
 822:	82 2f       	mov	r24, r18
 824:	86 78       	andi	r24, 0x86	; 134
 826:	59 f0       	breq	.+22     	; 0x83e <vfprintf+0x6a6>
 828:	21 fd       	sbrc	r18, 1
 82a:	02 c0       	rjmp	.+4      	; 0x830 <vfprintf+0x698>
 82c:	80 e2       	ldi	r24, 0x20	; 32
 82e:	01 c0       	rjmp	.+2      	; 0x832 <vfprintf+0x69a>
 830:	8b e2       	ldi	r24, 0x2B	; 43
 832:	27 fd       	sbrc	r18, 7
 834:	8d e2       	ldi	r24, 0x2D	; 45
 836:	b7 01       	movw	r22, r14
 838:	90 e0       	ldi	r25, 0x00	; 0
 83a:	0e 94 7d 06 	call	0xcfa	; 0xcfa <fputc>
 83e:	c1 16       	cp	r12, r17
 840:	38 f4       	brcc	.+14     	; 0x850 <vfprintf+0x6b8>
 842:	b7 01       	movw	r22, r14
 844:	80 e3       	ldi	r24, 0x30	; 48
 846:	90 e0       	ldi	r25, 0x00	; 0
 848:	0e 94 7d 06 	call	0xcfa	; 0xcfa <fputc>
 84c:	11 50       	subi	r17, 0x01	; 1
 84e:	f7 cf       	rjmp	.-18     	; 0x83e <vfprintf+0x6a6>
 850:	ca 94       	dec	r12
 852:	f4 01       	movw	r30, r8
 854:	ec 0d       	add	r30, r12
 856:	f1 1d       	adc	r31, r1
 858:	80 81       	ld	r24, Z
 85a:	b7 01       	movw	r22, r14
 85c:	90 e0       	ldi	r25, 0x00	; 0
 85e:	0e 94 7d 06 	call	0xcfa	; 0xcfa <fputc>
 862:	c1 10       	cpse	r12, r1
 864:	f5 cf       	rjmp	.-22     	; 0x850 <vfprintf+0x6b8>
 866:	55 20       	and	r5, r5
 868:	09 f4       	brne	.+2      	; 0x86c <vfprintf+0x6d4>
 86a:	c2 cc       	rjmp	.-1660   	; 0x1f0 <vfprintf+0x58>
 86c:	b7 01       	movw	r22, r14
 86e:	80 e2       	ldi	r24, 0x20	; 32
 870:	90 e0       	ldi	r25, 0x00	; 0
 872:	0e 94 7d 06 	call	0xcfa	; 0xcfa <fputc>
 876:	5a 94       	dec	r5
 878:	f6 cf       	rjmp	.-20     	; 0x866 <vfprintf+0x6ce>
 87a:	f7 01       	movw	r30, r14
 87c:	86 81       	ldd	r24, Z+6	; 0x06
 87e:	97 81       	ldd	r25, Z+7	; 0x07
 880:	02 c0       	rjmp	.+4      	; 0x886 <vfprintf+0x6ee>
 882:	8f ef       	ldi	r24, 0xFF	; 255
 884:	9f ef       	ldi	r25, 0xFF	; 255
 886:	63 96       	adiw	r28, 0x13	; 19
 888:	e2 e1       	ldi	r30, 0x12	; 18
 88a:	0c 94 74 05 	jmp	0xae8	; 0xae8 <__epilogue_restores__>

0000088e <adcInit>:
# include "usart.h"
#include <stdio.h>

void adcInit(uint8_t input)
{
	DDRC &= ~(1<<input);		//Set Port C for input
 88e:	97 b1       	in	r25, 0x07	; 7
 890:	21 e0       	ldi	r18, 0x01	; 1
 892:	30 e0       	ldi	r19, 0x00	; 0
 894:	08 2e       	mov	r0, r24
 896:	01 c0       	rjmp	.+2      	; 0x89a <adcInit+0xc>
 898:	22 0f       	add	r18, r18
 89a:	0a 94       	dec	r0
 89c:	ea f7       	brpl	.-6      	; 0x898 <adcInit+0xa>
 89e:	20 95       	com	r18
 8a0:	29 23       	and	r18, r25
 8a2:	27 b9       	out	0x07, r18	; 7

	ADMUX = input;				// input to ADC multiplexer
 8a4:	ec e7       	ldi	r30, 0x7C	; 124
 8a6:	f0 e0       	ldi	r31, 0x00	; 0
 8a8:	80 83       	st	Z, r24

	ADMUX |= (1<<REFS0);		//use AVcc as reference voltage
 8aa:	80 81       	ld	r24, Z
 8ac:	80 64       	ori	r24, 0x40	; 64
 8ae:	80 83       	st	Z, r24

	ADMUX |= (1<<ADLAR);		//8 bit result
 8b0:	80 81       	ld	r24, Z
 8b2:	80 62       	ori	r24, 0x20	; 32
 8b4:	80 83       	st	Z, r24

	ADCSRA |= ((1<<ADPS0) | (1<<ADPS1) | (1<<ADPS2));		//Set up the ADC for a single read, AVcc as ref, 128 prescale
 8b6:	ea e7       	ldi	r30, 0x7A	; 122
 8b8:	f0 e0       	ldi	r31, 0x00	; 0
 8ba:	80 81       	ld	r24, Z
 8bc:	87 60       	ori	r24, 0x07	; 7
 8be:	80 83       	st	Z, r24

	ADCSRA |= (1<<ADEN);		//switch on ADC
 8c0:	80 81       	ld	r24, Z
 8c2:	80 68       	ori	r24, 0x80	; 128
 8c4:	80 83       	st	Z, r24
 8c6:	08 95       	ret

000008c8 <adcRead>:
}

uint16_t adcRead(void)
{
	uint16_t adcResult = ADCH;
 8c8:	80 91 79 00 	lds	r24, 0x0079

	//start conversion
	ADCSRA |= (1<<ADSC);
 8cc:	80 91 7a 00 	lds	r24, 0x007A
 8d0:	80 64       	ori	r24, 0x40	; 64
 8d2:	80 93 7a 00 	sts	0x007A, r24

	//wait for ADC to complete
	//wait until ADSC bit goes low
	while(ADCSRA & (1<<ADSC))
 8d6:	80 91 7a 00 	lds	r24, 0x007A
 8da:	86 fd       	sbrc	r24, 6
 8dc:	fc cf       	rjmp	.-8      	; 0x8d6 <adcRead+0xe>
	}

	//ADC is complete - grab result...

	// extract result when ADC conversion is complete
	adcResult = ADCH;
 8de:	80 91 79 00 	lds	r24, 0x0079
	return adcResult;
}
 8e2:	90 e0       	ldi	r25, 0x00	; 0
 8e4:	08 95       	ret

000008e6 <dbg_putchar>:
#define DBG_UART_TX_NUM_ADD_NOP		((F_CPU/DBG_UART_BAUDRATE-16)%4)
	uint8_t sreg;
	uint16_t tmp;
	uint8_t numiter = 10;

	sreg = SREG;
 8e6:	2f b7       	in	r18, 0x3f	; 63
	cli();
 8e8:	f8 94       	cli

	asm volatile (
 8ea:	9a e0       	ldi	r25, 0x0A	; 10
 8ec:	e5 b1       	in	r30, 0x05	; 5
 8ee:	ee 7f       	andi	r30, 0xFE	; 254
 8f0:	e5 b9       	out	0x05, r30	; 5
	...
 8fa:	00 00       	nop
 8fc:	ed e9       	ldi	r30, 0x9D	; 157
 8fe:	f1 e0       	ldi	r31, 0x01	; 1
 900:	31 97       	sbiw	r30, 0x01	; 1
 902:	f1 f7       	brne	.-4      	; 0x900 <__stack+0x1>
 904:	00 00       	nop
 906:	00 00       	nop
 908:	e5 b1       	in	r30, 0x05	; 5
 90a:	80 fd       	sbrc	r24, 0
 90c:	e1 60       	ori	r30, 0x01	; 1
 90e:	80 ff       	sbrs	r24, 0
 910:	ee 7f       	andi	r30, 0xFE	; 254
 912:	e5 b9       	out	0x05, r30	; 5
 914:	08 94       	sec
 916:	87 95       	ror	r24
 918:	9a 95       	dec	r25
 91a:	81 f7       	brne	.-32     	; 0x8fc <dbg_putchar+0x16>
		  "M" (1<<DBG_UART_TX_PIN),
		  "i" (DBG_UART_TX_NUM_DELAY_CYCLES),
		  "1" (c),			/* data */
		  "2" (numiter)
	);
	SREG = sreg;
 91c:	2f bf       	out	0x3f, r18	; 63
 91e:	08 95       	ret

00000920 <dbg_putStr>:
#include "dbg_putchar.h"

#if DBG_UART_ENABLE

void dbg_putStr(char string[])
{
 920:	1f 93       	push	r17
 922:	cf 93       	push	r28
 924:	df 93       	push	r29
 926:	ec 01       	movw	r28, r24
	uint8_t i = 0;

	while(string[i] != '\0')
 928:	88 81       	ld	r24, Y
 92a:	88 23       	and	r24, r24
 92c:	51 f0       	breq	.+20     	; 0x942 <dbg_putStr+0x22>

#if DBG_UART_ENABLE

void dbg_putStr(char string[])
{
	uint8_t i = 0;
 92e:	10 e0       	ldi	r17, 0x00	; 0

	while(string[i] != '\0')
	{
		dbg_putchar(string[i++]);
 930:	1f 5f       	subi	r17, 0xFF	; 255
 932:	0e 94 73 04 	call	0x8e6	; 0x8e6 <dbg_putchar>

void dbg_putStr(char string[])
{
	uint8_t i = 0;

	while(string[i] != '\0')
 936:	fe 01       	movw	r30, r28
 938:	e1 0f       	add	r30, r17
 93a:	f1 1d       	adc	r31, r1
 93c:	80 81       	ld	r24, Z
 93e:	81 11       	cpse	r24, r1
 940:	f7 cf       	rjmp	.-18     	; 0x930 <dbg_putStr+0x10>
	{
		dbg_putchar(string[i++]);
	}
}
 942:	df 91       	pop	r29
 944:	cf 91       	pop	r28
 946:	1f 91       	pop	r17
 948:	08 95       	ret

0000094a <snocCmd>:
				}
}


void snocCmd(char cmdStr[])
{
 94a:	ff 92       	push	r15
 94c:	0f 93       	push	r16
 94e:	1f 93       	push	r17
 950:	cf 93       	push	r28
 952:	df 93       	push	r29
 954:	cd b7       	in	r28, 0x3d	; 61
 956:	de b7       	in	r29, 0x3e	; 62
 958:	64 97       	sbiw	r28, 0x14	; 20
 95a:	0f b6       	in	r0, 0x3f	; 63
 95c:	f8 94       	cli
 95e:	de bf       	out	0x3e, r29	; 62
 960:	0f be       	out	0x3f, r0	; 63
 962:	cd bf       	out	0x3d, r28	; 61
 964:	8c 01       	movw	r16, r24
	char rxStr[20];
	uint8_t rxIndex = 0;
	uint8_t newLineReceived = 0;

	dbg_putStr(cmdStr);			//Command to SNOC
 966:	0e 94 90 04 	call	0x920	; 0x920 <dbg_putStr>
	usartSendString(cmdStr);	//echo command to PC
 96a:	c8 01       	movw	r24, r16
 96c:	0e 94 3c 05 	call	0xa78	; 0xa78 <usartSendString>


void snocCmd(char cmdStr[])
{
	char rxStr[20];
	uint8_t rxIndex = 0;
 970:	f1 2c       	mov	r15, r1
	dbg_putStr(cmdStr);			//Command to SNOC
	usartSendString(cmdStr);	//echo command to PC

	while(!newLineReceived)
	{
		while(!usartCharReceived())
 972:	0e 94 4f 05 	call	0xa9e	; 0xa9e <usartCharReceived>
 976:	88 23       	and	r24, r24
 978:	e1 f3       	breq	.-8      	; 0x972 <snocCmd+0x28>
		{
		}

		//Char has been received!
		rxStr[rxIndex] = usartReadChar();
 97a:	0f 2d       	mov	r16, r15
 97c:	10 e0       	ldi	r17, 0x00	; 0
 97e:	0e 94 55 05 	call	0xaaa	; 0xaaa <usartReadChar>

		if(rxStr[rxIndex] == '\n')
		{
			newLineReceived = 1;
			rxStr[rxIndex] = '\0';
 982:	e1 e0       	ldi	r30, 0x01	; 1
 984:	f0 e0       	ldi	r31, 0x00	; 0
 986:	ec 0f       	add	r30, r28
 988:	fd 1f       	adc	r31, r29
 98a:	e0 0f       	add	r30, r16
 98c:	f1 1f       	adc	r31, r17
		}

		//Char has been received!
		rxStr[rxIndex] = usartReadChar();

		if(rxStr[rxIndex] == '\n')
 98e:	8a 30       	cpi	r24, 0x0A	; 10
 990:	19 f0       	breq	.+6      	; 0x998 <snocCmd+0x4e>
		while(!usartCharReceived())
		{
		}

		//Char has been received!
		rxStr[rxIndex] = usartReadChar();
 992:	80 83       	st	Z, r24
			newLineReceived = 1;
			rxStr[rxIndex] = '\0';
		}
		else
		{
			rxIndex++;
 994:	f3 94       	inc	r15
 996:	ed cf       	rjmp	.-38     	; 0x972 <snocCmd+0x28>
		rxStr[rxIndex] = usartReadChar();

		if(rxStr[rxIndex] == '\n')
		{
			newLineReceived = 1;
			rxStr[rxIndex] = '\0';
 998:	10 82       	st	Z, r1
			rxIndex++;
		}
	}

	//echo received string to PC
	usartSendString(rxStr);
 99a:	ce 01       	movw	r24, r28
 99c:	01 96       	adiw	r24, 0x01	; 1
 99e:	0e 94 3c 05 	call	0xa78	; 0xa78 <usartSendString>
}
 9a2:	64 96       	adiw	r28, 0x14	; 20
 9a4:	0f b6       	in	r0, 0x3f	; 63
 9a6:	f8 94       	cli
 9a8:	de bf       	out	0x3e, r29	; 62
 9aa:	0f be       	out	0x3f, r0	; 63
 9ac:	cd bf       	out	0x3d, r28	; 61
 9ae:	df 91       	pop	r29
 9b0:	cf 91       	pop	r28
 9b2:	1f 91       	pop	r17
 9b4:	0f 91       	pop	r16
 9b6:	ff 90       	pop	r15
 9b8:	08 95       	ret

000009ba <main>:
#include "dbg_putchar.h"

void snocCmd(char cmdStr[]);

int main(void)
{
 9ba:	cf 93       	push	r28
 9bc:	df 93       	push	r29
 9be:	cd b7       	in	r28, 0x3d	; 61
 9c0:	de b7       	in	r29, 0x3e	; 62
 9c2:	64 97       	sbiw	r28, 0x14	; 20
 9c4:	0f b6       	in	r0, 0x3f	; 63
 9c6:	f8 94       	cli
 9c8:	de bf       	out	0x3e, r29	; 62
 9ca:	0f be       	out	0x3f, r0	; 63
 9cc:	cd bf       	out	0x3d, r28	; 61

	adcInit(5);
 9ce:	85 e0       	ldi	r24, 0x05	; 5
 9d0:	0e 94 47 04 	call	0x88e	; 0x88e <adcInit>
	usartInit();
 9d4:	0e 94 23 05 	call	0xa46	; 0xa46 <usartInit>
	dbg_tx_init();
 9d8:	28 9a       	sbi	0x05, 0	; 5
 9da:	20 9a       	sbi	0x04, 0	; 4

	uint8_t cv, ov =1;

	DDRB |= (1<<5);
 9dc:	25 9a       	sbi	0x04, 5	; 4
	DDRB &= ~(1<<4);
 9de:	24 98       	cbi	0x04, 4	; 4
	PORTB |= (1<<4);
 9e0:	2c 9a       	sbi	0x05, 4	; 5
 9e2:	8e 01       	movw	r16, r28
 9e4:	0f 5f       	subi	r16, 0xFF	; 255
 9e6:	1f 4f       	sbci	r17, 0xFF	; 255
						snocCmd("AT\n");
						usartSendString(" Current Value of temperature ");
						sprintf(myTempStr, "AT$SF=%d\n", myTemp);
						snocCmd(myTempStr);
						}
						else {PORTB = ~(1<<5);}
 9e8:	8f ed       	ldi	r24, 0xDF	; 223
 9ea:	b8 2e       	mov	r11, r24
						uint8_t myTemp= adcRead();

						snocCmd("AT\n");
						snocCmd("AT\n");
						usartSendString(" Current Value of temperature ");
						sprintf(myTempStr, "AT$SF=%d\n", myTemp);
 9ec:	93 e2       	ldi	r25, 0x23	; 35
 9ee:	e9 2e       	mov	r14, r25
 9f0:	91 e0       	ldi	r25, 0x01	; 1
 9f2:	f9 2e       	mov	r15, r25

	while(1)
				{

		cv= PINB & (1<<4);
						if (cv==0 && ov !=0)
 9f4:	1c 9b       	sbis	0x03, 4	; 3
 9f6:	03 c0       	rjmp	.+6      	; 0x9fe <main+0x44>
						snocCmd("AT\n");
						usartSendString(" Current Value of temperature ");
						sprintf(myTempStr, "AT$SF=%d\n", myTemp);
						snocCmd(myTempStr);
						}
						else {PORTB = ~(1<<5);}
 9f8:	b5 b8       	out	0x05, r11	; 5

	while(1)
				{

		cv= PINB & (1<<4);
						if (cv==0 && ov !=0)
 9fa:	1c 99       	sbic	0x03, 4	; 3
 9fc:	fd cf       	rjmp	.-6      	; 0x9f8 <main+0x3e>
						{
						PORTB |= (1<<5);
 9fe:	2d 9a       	sbi	0x05, 5	; 5

						char myTempStr[20];
						uint8_t myTemp= adcRead();
 a00:	0e 94 64 04 	call	0x8c8	; 0x8c8 <adcRead>
 a04:	6c 01       	movw	r12, r24

						snocCmd("AT\n");
 a06:	80 e0       	ldi	r24, 0x00	; 0
 a08:	91 e0       	ldi	r25, 0x01	; 1
 a0a:	0e 94 a5 04 	call	0x94a	; 0x94a <snocCmd>
						snocCmd("AT\n");
 a0e:	80 e0       	ldi	r24, 0x00	; 0
 a10:	91 e0       	ldi	r25, 0x01	; 1
 a12:	0e 94 a5 04 	call	0x94a	; 0x94a <snocCmd>
						usartSendString(" Current Value of temperature ");
 a16:	84 e0       	ldi	r24, 0x04	; 4
 a18:	91 e0       	ldi	r25, 0x01	; 1
 a1a:	0e 94 3c 05 	call	0xa78	; 0xa78 <usartSendString>
 a1e:	c6 01       	movw	r24, r12
 a20:	99 27       	eor	r25, r25
						sprintf(myTempStr, "AT$SF=%d\n", myTemp);
 a22:	9f 93       	push	r25
 a24:	8f 93       	push	r24
 a26:	ff 92       	push	r15
 a28:	ef 92       	push	r14
 a2a:	1f 93       	push	r17
 a2c:	0f 93       	push	r16
 a2e:	0e 94 af 06 	call	0xd5e	; 0xd5e <sprintf>
						snocCmd(myTempStr);
 a32:	c8 01       	movw	r24, r16
 a34:	0e 94 a5 04 	call	0x94a	; 0x94a <snocCmd>
	while(1)
				{

		cv= PINB & (1<<4);
						if (cv==0 && ov !=0)
						{
 a38:	0f 90       	pop	r0
 a3a:	0f 90       	pop	r0
 a3c:	0f 90       	pop	r0
 a3e:	0f 90       	pop	r0
 a40:	0f 90       	pop	r0
 a42:	0f 90       	pop	r0
 a44:	d7 cf       	rjmp	.-82     	; 0x9f4 <main+0x3a>

00000a46 <usartInit>:

#include "usart.h"

void usartInit(void)
{
	UCSR0B |= ((1<<RXEN0) | (1<<TXEN0));
 a46:	e1 ec       	ldi	r30, 0xC1	; 193
 a48:	f0 e0       	ldi	r31, 0x00	; 0
 a4a:	80 81       	ld	r24, Z
 a4c:	88 61       	ori	r24, 0x18	; 24
 a4e:	80 83       	st	Z, r24

	UBRR0 = 0x68;
 a50:	88 e6       	ldi	r24, 0x68	; 104
 a52:	90 e0       	ldi	r25, 0x00	; 0
 a54:	90 93 c5 00 	sts	0x00C5, r25
 a58:	80 93 c4 00 	sts	0x00C4, r24
 a5c:	08 95       	ret

00000a5e <usartEnableRxInt>:
}

void usartEnableRxInt(void)
{
	UCSR0B |= (1<<RXCIE0);
 a5e:	e1 ec       	ldi	r30, 0xC1	; 193
 a60:	f0 e0       	ldi	r31, 0x00	; 0
 a62:	80 81       	ld	r24, Z
 a64:	80 68       	ori	r24, 0x80	; 128
 a66:	80 83       	st	Z, r24
 a68:	08 95       	ret

00000a6a <usartSendChar>:
}

void usartSendChar(char c)
{
	while ((UCSR0A & (1 << UDRE0)) == 0) {}; // Do nothing until UDR is ready for more data to be written to it
 a6a:	90 91 c0 00 	lds	r25, 0x00C0
 a6e:	95 ff       	sbrs	r25, 5
 a70:	fc cf       	rjmp	.-8      	; 0xa6a <usartSendChar>
	UDR0 = c;
 a72:	80 93 c6 00 	sts	0x00C6, r24
 a76:	08 95       	ret

00000a78 <usartSendString>:

void usartSendString(char string[])
{
	uint8_t i = 0;

	while(string[i] != '\0')
 a78:	fc 01       	movw	r30, r24
 a7a:	30 81       	ld	r19, Z
 a7c:	33 23       	and	r19, r19
 a7e:	71 f0       	breq	.+28     	; 0xa9c <usartSendString+0x24>
	UDR0 = c;
}

void usartSendString(char string[])
{
	uint8_t i = 0;
 a80:	40 e0       	ldi	r20, 0x00	; 0

	while(string[i] != '\0')
	{
		usartSendChar(string[i++]);
 a82:	4f 5f       	subi	r20, 0xFF	; 255
	UCSR0B |= (1<<RXCIE0);
}

void usartSendChar(char c)
{
	while ((UCSR0A & (1 << UDRE0)) == 0) {}; // Do nothing until UDR is ready for more data to be written to it
 a84:	20 91 c0 00 	lds	r18, 0x00C0
 a88:	25 ff       	sbrs	r18, 5
 a8a:	fc cf       	rjmp	.-8      	; 0xa84 <usartSendString+0xc>
	UDR0 = c;
 a8c:	30 93 c6 00 	sts	0x00C6, r19

void usartSendString(char string[])
{
	uint8_t i = 0;

	while(string[i] != '\0')
 a90:	fc 01       	movw	r30, r24
 a92:	e4 0f       	add	r30, r20
 a94:	f1 1d       	adc	r31, r1
 a96:	30 81       	ld	r19, Z
 a98:	31 11       	cpse	r19, r1
 a9a:	f3 cf       	rjmp	.-26     	; 0xa82 <usartSendString+0xa>
 a9c:	08 95       	ret

00000a9e <usartCharReceived>:

uint8_t usartCharReceived(void)
{
	uint8_t retVal = 0;

	if(UCSR0A & (1 << RXC0))
 a9e:	80 91 c0 00 	lds	r24, 0x00C0
	{
		retVal = 1;
	}

	return retVal;
}
 aa2:	88 1f       	adc	r24, r24
 aa4:	88 27       	eor	r24, r24
 aa6:	88 1f       	adc	r24, r24
 aa8:	08 95       	ret

00000aaa <usartReadChar>:

char usartReadChar(void)
{
	return UDR0;
 aaa:	80 91 c6 00 	lds	r24, 0x00C6
}
 aae:	08 95       	ret

00000ab0 <__prologue_saves__>:
 ab0:	2f 92       	push	r2
 ab2:	3f 92       	push	r3
 ab4:	4f 92       	push	r4
 ab6:	5f 92       	push	r5
 ab8:	6f 92       	push	r6
 aba:	7f 92       	push	r7
 abc:	8f 92       	push	r8
 abe:	9f 92       	push	r9
 ac0:	af 92       	push	r10
 ac2:	bf 92       	push	r11
 ac4:	cf 92       	push	r12
 ac6:	df 92       	push	r13
 ac8:	ef 92       	push	r14
 aca:	ff 92       	push	r15
 acc:	0f 93       	push	r16
 ace:	1f 93       	push	r17
 ad0:	cf 93       	push	r28
 ad2:	df 93       	push	r29
 ad4:	cd b7       	in	r28, 0x3d	; 61
 ad6:	de b7       	in	r29, 0x3e	; 62
 ad8:	ca 1b       	sub	r28, r26
 ada:	db 0b       	sbc	r29, r27
 adc:	0f b6       	in	r0, 0x3f	; 63
 ade:	f8 94       	cli
 ae0:	de bf       	out	0x3e, r29	; 62
 ae2:	0f be       	out	0x3f, r0	; 63
 ae4:	cd bf       	out	0x3d, r28	; 61
 ae6:	09 94       	ijmp

00000ae8 <__epilogue_restores__>:
 ae8:	2a 88       	ldd	r2, Y+18	; 0x12
 aea:	39 88       	ldd	r3, Y+17	; 0x11
 aec:	48 88       	ldd	r4, Y+16	; 0x10
 aee:	5f 84       	ldd	r5, Y+15	; 0x0f
 af0:	6e 84       	ldd	r6, Y+14	; 0x0e
 af2:	7d 84       	ldd	r7, Y+13	; 0x0d
 af4:	8c 84       	ldd	r8, Y+12	; 0x0c
 af6:	9b 84       	ldd	r9, Y+11	; 0x0b
 af8:	aa 84       	ldd	r10, Y+10	; 0x0a
 afa:	b9 84       	ldd	r11, Y+9	; 0x09
 afc:	c8 84       	ldd	r12, Y+8	; 0x08
 afe:	df 80       	ldd	r13, Y+7	; 0x07
 b00:	ee 80       	ldd	r14, Y+6	; 0x06
 b02:	fd 80       	ldd	r15, Y+5	; 0x05
 b04:	0c 81       	ldd	r16, Y+4	; 0x04
 b06:	1b 81       	ldd	r17, Y+3	; 0x03
 b08:	aa 81       	ldd	r26, Y+2	; 0x02
 b0a:	b9 81       	ldd	r27, Y+1	; 0x01
 b0c:	ce 0f       	add	r28, r30
 b0e:	d1 1d       	adc	r29, r1
 b10:	0f b6       	in	r0, 0x3f	; 63
 b12:	f8 94       	cli
 b14:	de bf       	out	0x3e, r29	; 62
 b16:	0f be       	out	0x3f, r0	; 63
 b18:	cd bf       	out	0x3d, r28	; 61
 b1a:	ed 01       	movw	r28, r26
 b1c:	08 95       	ret

00000b1e <__ftoa_engine>:
 b1e:	28 30       	cpi	r18, 0x08	; 8
 b20:	08 f0       	brcs	.+2      	; 0xb24 <__ftoa_engine+0x6>
 b22:	27 e0       	ldi	r18, 0x07	; 7
 b24:	33 27       	eor	r19, r19
 b26:	da 01       	movw	r26, r20
 b28:	99 0f       	add	r25, r25
 b2a:	31 1d       	adc	r19, r1
 b2c:	87 fd       	sbrc	r24, 7
 b2e:	91 60       	ori	r25, 0x01	; 1
 b30:	00 96       	adiw	r24, 0x00	; 0
 b32:	61 05       	cpc	r22, r1
 b34:	71 05       	cpc	r23, r1
 b36:	39 f4       	brne	.+14     	; 0xb46 <__ftoa_engine+0x28>
 b38:	32 60       	ori	r19, 0x02	; 2
 b3a:	2e 5f       	subi	r18, 0xFE	; 254
 b3c:	3d 93       	st	X+, r19
 b3e:	30 e3       	ldi	r19, 0x30	; 48
 b40:	2a 95       	dec	r18
 b42:	e1 f7       	brne	.-8      	; 0xb3c <__ftoa_engine+0x1e>
 b44:	08 95       	ret
 b46:	9f 3f       	cpi	r25, 0xFF	; 255
 b48:	30 f0       	brcs	.+12     	; 0xb56 <__ftoa_engine+0x38>
 b4a:	80 38       	cpi	r24, 0x80	; 128
 b4c:	71 05       	cpc	r23, r1
 b4e:	61 05       	cpc	r22, r1
 b50:	09 f0       	breq	.+2      	; 0xb54 <__ftoa_engine+0x36>
 b52:	3c 5f       	subi	r19, 0xFC	; 252
 b54:	3c 5f       	subi	r19, 0xFC	; 252
 b56:	3d 93       	st	X+, r19
 b58:	91 30       	cpi	r25, 0x01	; 1
 b5a:	08 f0       	brcs	.+2      	; 0xb5e <__ftoa_engine+0x40>
 b5c:	80 68       	ori	r24, 0x80	; 128
 b5e:	91 1d       	adc	r25, r1
 b60:	df 93       	push	r29
 b62:	cf 93       	push	r28
 b64:	1f 93       	push	r17
 b66:	0f 93       	push	r16
 b68:	ff 92       	push	r15
 b6a:	ef 92       	push	r14
 b6c:	19 2f       	mov	r17, r25
 b6e:	98 7f       	andi	r25, 0xF8	; 248
 b70:	96 95       	lsr	r25
 b72:	e9 2f       	mov	r30, r25
 b74:	96 95       	lsr	r25
 b76:	96 95       	lsr	r25
 b78:	e9 0f       	add	r30, r25
 b7a:	ff 27       	eor	r31, r31
 b7c:	e6 53       	subi	r30, 0x36	; 54
 b7e:	ff 4f       	sbci	r31, 0xFF	; 255
 b80:	99 27       	eor	r25, r25
 b82:	33 27       	eor	r19, r19
 b84:	ee 24       	eor	r14, r14
 b86:	ff 24       	eor	r15, r15
 b88:	a7 01       	movw	r20, r14
 b8a:	e7 01       	movw	r28, r14
 b8c:	05 90       	lpm	r0, Z+
 b8e:	08 94       	sec
 b90:	07 94       	ror	r0
 b92:	28 f4       	brcc	.+10     	; 0xb9e <__ftoa_engine+0x80>
 b94:	36 0f       	add	r19, r22
 b96:	e7 1e       	adc	r14, r23
 b98:	f8 1e       	adc	r15, r24
 b9a:	49 1f       	adc	r20, r25
 b9c:	51 1d       	adc	r21, r1
 b9e:	66 0f       	add	r22, r22
 ba0:	77 1f       	adc	r23, r23
 ba2:	88 1f       	adc	r24, r24
 ba4:	99 1f       	adc	r25, r25
 ba6:	06 94       	lsr	r0
 ba8:	a1 f7       	brne	.-24     	; 0xb92 <__ftoa_engine+0x74>
 baa:	05 90       	lpm	r0, Z+
 bac:	07 94       	ror	r0
 bae:	28 f4       	brcc	.+10     	; 0xbba <__ftoa_engine+0x9c>
 bb0:	e7 0e       	add	r14, r23
 bb2:	f8 1e       	adc	r15, r24
 bb4:	49 1f       	adc	r20, r25
 bb6:	56 1f       	adc	r21, r22
 bb8:	c1 1d       	adc	r28, r1
 bba:	77 0f       	add	r23, r23
 bbc:	88 1f       	adc	r24, r24
 bbe:	99 1f       	adc	r25, r25
 bc0:	66 1f       	adc	r22, r22
 bc2:	06 94       	lsr	r0
 bc4:	a1 f7       	brne	.-24     	; 0xbae <__ftoa_engine+0x90>
 bc6:	05 90       	lpm	r0, Z+
 bc8:	07 94       	ror	r0
 bca:	28 f4       	brcc	.+10     	; 0xbd6 <__ftoa_engine+0xb8>
 bcc:	f8 0e       	add	r15, r24
 bce:	49 1f       	adc	r20, r25
 bd0:	56 1f       	adc	r21, r22
 bd2:	c7 1f       	adc	r28, r23
 bd4:	d1 1d       	adc	r29, r1
 bd6:	88 0f       	add	r24, r24
 bd8:	99 1f       	adc	r25, r25
 bda:	66 1f       	adc	r22, r22
 bdc:	77 1f       	adc	r23, r23
 bde:	06 94       	lsr	r0
 be0:	a1 f7       	brne	.-24     	; 0xbca <__ftoa_engine+0xac>
 be2:	05 90       	lpm	r0, Z+
 be4:	07 94       	ror	r0
 be6:	20 f4       	brcc	.+8      	; 0xbf0 <__ftoa_engine+0xd2>
 be8:	49 0f       	add	r20, r25
 bea:	56 1f       	adc	r21, r22
 bec:	c7 1f       	adc	r28, r23
 bee:	d8 1f       	adc	r29, r24
 bf0:	99 0f       	add	r25, r25
 bf2:	66 1f       	adc	r22, r22
 bf4:	77 1f       	adc	r23, r23
 bf6:	88 1f       	adc	r24, r24
 bf8:	06 94       	lsr	r0
 bfa:	a9 f7       	brne	.-22     	; 0xbe6 <__ftoa_engine+0xc8>
 bfc:	84 91       	lpm	r24, Z
 bfe:	10 95       	com	r17
 c00:	17 70       	andi	r17, 0x07	; 7
 c02:	41 f0       	breq	.+16     	; 0xc14 <__ftoa_engine+0xf6>
 c04:	d6 95       	lsr	r29
 c06:	c7 95       	ror	r28
 c08:	57 95       	ror	r21
 c0a:	47 95       	ror	r20
 c0c:	f7 94       	ror	r15
 c0e:	e7 94       	ror	r14
 c10:	1a 95       	dec	r17
 c12:	c1 f7       	brne	.-16     	; 0xc04 <__ftoa_engine+0xe6>
 c14:	e0 e7       	ldi	r30, 0x70	; 112
 c16:	f0 e0       	ldi	r31, 0x00	; 0
 c18:	68 94       	set
 c1a:	15 90       	lpm	r1, Z+
 c1c:	15 91       	lpm	r17, Z+
 c1e:	35 91       	lpm	r19, Z+
 c20:	65 91       	lpm	r22, Z+
 c22:	95 91       	lpm	r25, Z+
 c24:	05 90       	lpm	r0, Z+
 c26:	7f e2       	ldi	r23, 0x2F	; 47
 c28:	73 95       	inc	r23
 c2a:	e1 18       	sub	r14, r1
 c2c:	f1 0a       	sbc	r15, r17
 c2e:	43 0b       	sbc	r20, r19
 c30:	56 0b       	sbc	r21, r22
 c32:	c9 0b       	sbc	r28, r25
 c34:	d0 09       	sbc	r29, r0
 c36:	c0 f7       	brcc	.-16     	; 0xc28 <__ftoa_engine+0x10a>
 c38:	e1 0c       	add	r14, r1
 c3a:	f1 1e       	adc	r15, r17
 c3c:	43 1f       	adc	r20, r19
 c3e:	56 1f       	adc	r21, r22
 c40:	c9 1f       	adc	r28, r25
 c42:	d0 1d       	adc	r29, r0
 c44:	7e f4       	brtc	.+30     	; 0xc64 <__ftoa_engine+0x146>
 c46:	70 33       	cpi	r23, 0x30	; 48
 c48:	11 f4       	brne	.+4      	; 0xc4e <__ftoa_engine+0x130>
 c4a:	8a 95       	dec	r24
 c4c:	e6 cf       	rjmp	.-52     	; 0xc1a <__ftoa_engine+0xfc>
 c4e:	e8 94       	clt
 c50:	01 50       	subi	r16, 0x01	; 1
 c52:	30 f0       	brcs	.+12     	; 0xc60 <__ftoa_engine+0x142>
 c54:	08 0f       	add	r16, r24
 c56:	0a f4       	brpl	.+2      	; 0xc5a <__ftoa_engine+0x13c>
 c58:	00 27       	eor	r16, r16
 c5a:	02 17       	cp	r16, r18
 c5c:	08 f4       	brcc	.+2      	; 0xc60 <__ftoa_engine+0x142>
 c5e:	20 2f       	mov	r18, r16
 c60:	23 95       	inc	r18
 c62:	02 2f       	mov	r16, r18
 c64:	7a 33       	cpi	r23, 0x3A	; 58
 c66:	28 f0       	brcs	.+10     	; 0xc72 <__ftoa_engine+0x154>
 c68:	79 e3       	ldi	r23, 0x39	; 57
 c6a:	7d 93       	st	X+, r23
 c6c:	2a 95       	dec	r18
 c6e:	e9 f7       	brne	.-6      	; 0xc6a <__ftoa_engine+0x14c>
 c70:	10 c0       	rjmp	.+32     	; 0xc92 <__ftoa_engine+0x174>
 c72:	7d 93       	st	X+, r23
 c74:	2a 95       	dec	r18
 c76:	89 f6       	brne	.-94     	; 0xc1a <__ftoa_engine+0xfc>
 c78:	06 94       	lsr	r0
 c7a:	97 95       	ror	r25
 c7c:	67 95       	ror	r22
 c7e:	37 95       	ror	r19
 c80:	17 95       	ror	r17
 c82:	17 94       	ror	r1
 c84:	e1 18       	sub	r14, r1
 c86:	f1 0a       	sbc	r15, r17
 c88:	43 0b       	sbc	r20, r19
 c8a:	56 0b       	sbc	r21, r22
 c8c:	c9 0b       	sbc	r28, r25
 c8e:	d0 09       	sbc	r29, r0
 c90:	98 f0       	brcs	.+38     	; 0xcb8 <__ftoa_engine+0x19a>
 c92:	23 95       	inc	r18
 c94:	7e 91       	ld	r23, -X
 c96:	73 95       	inc	r23
 c98:	7a 33       	cpi	r23, 0x3A	; 58
 c9a:	08 f0       	brcs	.+2      	; 0xc9e <__ftoa_engine+0x180>
 c9c:	70 e3       	ldi	r23, 0x30	; 48
 c9e:	7c 93       	st	X, r23
 ca0:	20 13       	cpse	r18, r16
 ca2:	b8 f7       	brcc	.-18     	; 0xc92 <__ftoa_engine+0x174>
 ca4:	7e 91       	ld	r23, -X
 ca6:	70 61       	ori	r23, 0x10	; 16
 ca8:	7d 93       	st	X+, r23
 caa:	30 f0       	brcs	.+12     	; 0xcb8 <__ftoa_engine+0x19a>
 cac:	83 95       	inc	r24
 cae:	71 e3       	ldi	r23, 0x31	; 49
 cb0:	7d 93       	st	X+, r23
 cb2:	70 e3       	ldi	r23, 0x30	; 48
 cb4:	2a 95       	dec	r18
 cb6:	e1 f7       	brne	.-8      	; 0xcb0 <__ftoa_engine+0x192>
 cb8:	11 24       	eor	r1, r1
 cba:	ef 90       	pop	r14
 cbc:	ff 90       	pop	r15
 cbe:	0f 91       	pop	r16
 cc0:	1f 91       	pop	r17
 cc2:	cf 91       	pop	r28
 cc4:	df 91       	pop	r29
 cc6:	99 27       	eor	r25, r25
 cc8:	87 fd       	sbrc	r24, 7
 cca:	90 95       	com	r25
 ccc:	08 95       	ret

00000cce <strnlen_P>:
 cce:	fc 01       	movw	r30, r24
 cd0:	05 90       	lpm	r0, Z+
 cd2:	61 50       	subi	r22, 0x01	; 1
 cd4:	70 40       	sbci	r23, 0x00	; 0
 cd6:	01 10       	cpse	r0, r1
 cd8:	d8 f7       	brcc	.-10     	; 0xcd0 <strnlen_P+0x2>
 cda:	80 95       	com	r24
 cdc:	90 95       	com	r25
 cde:	8e 0f       	add	r24, r30
 ce0:	9f 1f       	adc	r25, r31
 ce2:	08 95       	ret

00000ce4 <strnlen>:
 ce4:	fc 01       	movw	r30, r24
 ce6:	61 50       	subi	r22, 0x01	; 1
 ce8:	70 40       	sbci	r23, 0x00	; 0
 cea:	01 90       	ld	r0, Z+
 cec:	01 10       	cpse	r0, r1
 cee:	d8 f7       	brcc	.-10     	; 0xce6 <strnlen+0x2>
 cf0:	80 95       	com	r24
 cf2:	90 95       	com	r25
 cf4:	8e 0f       	add	r24, r30
 cf6:	9f 1f       	adc	r25, r31
 cf8:	08 95       	ret

00000cfa <fputc>:
 cfa:	0f 93       	push	r16
 cfc:	1f 93       	push	r17
 cfe:	cf 93       	push	r28
 d00:	df 93       	push	r29
 d02:	18 2f       	mov	r17, r24
 d04:	09 2f       	mov	r16, r25
 d06:	eb 01       	movw	r28, r22
 d08:	8b 81       	ldd	r24, Y+3	; 0x03
 d0a:	81 fd       	sbrc	r24, 1
 d0c:	03 c0       	rjmp	.+6      	; 0xd14 <fputc+0x1a>
 d0e:	8f ef       	ldi	r24, 0xFF	; 255
 d10:	9f ef       	ldi	r25, 0xFF	; 255
 d12:	20 c0       	rjmp	.+64     	; 0xd54 <fputc+0x5a>
 d14:	82 ff       	sbrs	r24, 2
 d16:	10 c0       	rjmp	.+32     	; 0xd38 <fputc+0x3e>
 d18:	4e 81       	ldd	r20, Y+6	; 0x06
 d1a:	5f 81       	ldd	r21, Y+7	; 0x07
 d1c:	2c 81       	ldd	r18, Y+4	; 0x04
 d1e:	3d 81       	ldd	r19, Y+5	; 0x05
 d20:	42 17       	cp	r20, r18
 d22:	53 07       	cpc	r21, r19
 d24:	7c f4       	brge	.+30     	; 0xd44 <fputc+0x4a>
 d26:	e8 81       	ld	r30, Y
 d28:	f9 81       	ldd	r31, Y+1	; 0x01
 d2a:	9f 01       	movw	r18, r30
 d2c:	2f 5f       	subi	r18, 0xFF	; 255
 d2e:	3f 4f       	sbci	r19, 0xFF	; 255
 d30:	39 83       	std	Y+1, r19	; 0x01
 d32:	28 83       	st	Y, r18
 d34:	10 83       	st	Z, r17
 d36:	06 c0       	rjmp	.+12     	; 0xd44 <fputc+0x4a>
 d38:	e8 85       	ldd	r30, Y+8	; 0x08
 d3a:	f9 85       	ldd	r31, Y+9	; 0x09
 d3c:	81 2f       	mov	r24, r17
 d3e:	09 95       	icall
 d40:	89 2b       	or	r24, r25
 d42:	29 f7       	brne	.-54     	; 0xd0e <fputc+0x14>
 d44:	2e 81       	ldd	r18, Y+6	; 0x06
 d46:	3f 81       	ldd	r19, Y+7	; 0x07
 d48:	2f 5f       	subi	r18, 0xFF	; 255
 d4a:	3f 4f       	sbci	r19, 0xFF	; 255
 d4c:	3f 83       	std	Y+7, r19	; 0x07
 d4e:	2e 83       	std	Y+6, r18	; 0x06
 d50:	81 2f       	mov	r24, r17
 d52:	90 2f       	mov	r25, r16
 d54:	df 91       	pop	r29
 d56:	cf 91       	pop	r28
 d58:	1f 91       	pop	r17
 d5a:	0f 91       	pop	r16
 d5c:	08 95       	ret

00000d5e <sprintf>:
 d5e:	ae e0       	ldi	r26, 0x0E	; 14
 d60:	b0 e0       	ldi	r27, 0x00	; 0
 d62:	e5 eb       	ldi	r30, 0xB5	; 181
 d64:	f6 e0       	ldi	r31, 0x06	; 6
 d66:	0c 94 66 05 	jmp	0xacc	; 0xacc <__prologue_saves__+0x1c>
 d6a:	0d 89       	ldd	r16, Y+21	; 0x15
 d6c:	1e 89       	ldd	r17, Y+22	; 0x16
 d6e:	86 e0       	ldi	r24, 0x06	; 6
 d70:	8c 83       	std	Y+4, r24	; 0x04
 d72:	1a 83       	std	Y+2, r17	; 0x02
 d74:	09 83       	std	Y+1, r16	; 0x01
 d76:	8f ef       	ldi	r24, 0xFF	; 255
 d78:	9f e7       	ldi	r25, 0x7F	; 127
 d7a:	9e 83       	std	Y+6, r25	; 0x06
 d7c:	8d 83       	std	Y+5, r24	; 0x05
 d7e:	ae 01       	movw	r20, r28
 d80:	47 5e       	subi	r20, 0xE7	; 231
 d82:	5f 4f       	sbci	r21, 0xFF	; 255
 d84:	6f 89       	ldd	r22, Y+23	; 0x17
 d86:	78 8d       	ldd	r23, Y+24	; 0x18
 d88:	ce 01       	movw	r24, r28
 d8a:	01 96       	adiw	r24, 0x01	; 1
 d8c:	0e 94 cc 00 	call	0x198	; 0x198 <vfprintf>
 d90:	ef 81       	ldd	r30, Y+7	; 0x07
 d92:	f8 85       	ldd	r31, Y+8	; 0x08
 d94:	e0 0f       	add	r30, r16
 d96:	f1 1f       	adc	r31, r17
 d98:	10 82       	st	Z, r1
 d9a:	2e 96       	adiw	r28, 0x0e	; 14
 d9c:	e4 e0       	ldi	r30, 0x04	; 4
 d9e:	0c 94 82 05 	jmp	0xb04	; 0xb04 <__epilogue_restores__+0x1c>

00000da2 <__ultoa_invert>:
 da2:	fa 01       	movw	r30, r20
 da4:	aa 27       	eor	r26, r26
 da6:	28 30       	cpi	r18, 0x08	; 8
 da8:	51 f1       	breq	.+84     	; 0xdfe <__ultoa_invert+0x5c>
 daa:	20 31       	cpi	r18, 0x10	; 16
 dac:	81 f1       	breq	.+96     	; 0xe0e <__ultoa_invert+0x6c>
 dae:	e8 94       	clt
 db0:	6f 93       	push	r22
 db2:	6e 7f       	andi	r22, 0xFE	; 254
 db4:	6e 5f       	subi	r22, 0xFE	; 254
 db6:	7f 4f       	sbci	r23, 0xFF	; 255
 db8:	8f 4f       	sbci	r24, 0xFF	; 255
 dba:	9f 4f       	sbci	r25, 0xFF	; 255
 dbc:	af 4f       	sbci	r26, 0xFF	; 255
 dbe:	b1 e0       	ldi	r27, 0x01	; 1
 dc0:	3e d0       	rcall	.+124    	; 0xe3e <__ultoa_invert+0x9c>
 dc2:	b4 e0       	ldi	r27, 0x04	; 4
 dc4:	3c d0       	rcall	.+120    	; 0xe3e <__ultoa_invert+0x9c>
 dc6:	67 0f       	add	r22, r23
 dc8:	78 1f       	adc	r23, r24
 dca:	89 1f       	adc	r24, r25
 dcc:	9a 1f       	adc	r25, r26
 dce:	a1 1d       	adc	r26, r1
 dd0:	68 0f       	add	r22, r24
 dd2:	79 1f       	adc	r23, r25
 dd4:	8a 1f       	adc	r24, r26
 dd6:	91 1d       	adc	r25, r1
 dd8:	a1 1d       	adc	r26, r1
 dda:	6a 0f       	add	r22, r26
 ddc:	71 1d       	adc	r23, r1
 dde:	81 1d       	adc	r24, r1
 de0:	91 1d       	adc	r25, r1
 de2:	a1 1d       	adc	r26, r1
 de4:	20 d0       	rcall	.+64     	; 0xe26 <__ultoa_invert+0x84>
 de6:	09 f4       	brne	.+2      	; 0xdea <__ultoa_invert+0x48>
 de8:	68 94       	set
 dea:	3f 91       	pop	r19
 dec:	2a e0       	ldi	r18, 0x0A	; 10
 dee:	26 9f       	mul	r18, r22
 df0:	11 24       	eor	r1, r1
 df2:	30 19       	sub	r19, r0
 df4:	30 5d       	subi	r19, 0xD0	; 208
 df6:	31 93       	st	Z+, r19
 df8:	de f6       	brtc	.-74     	; 0xdb0 <__ultoa_invert+0xe>
 dfa:	cf 01       	movw	r24, r30
 dfc:	08 95       	ret
 dfe:	46 2f       	mov	r20, r22
 e00:	47 70       	andi	r20, 0x07	; 7
 e02:	40 5d       	subi	r20, 0xD0	; 208
 e04:	41 93       	st	Z+, r20
 e06:	b3 e0       	ldi	r27, 0x03	; 3
 e08:	0f d0       	rcall	.+30     	; 0xe28 <__ultoa_invert+0x86>
 e0a:	c9 f7       	brne	.-14     	; 0xdfe <__ultoa_invert+0x5c>
 e0c:	f6 cf       	rjmp	.-20     	; 0xdfa <__ultoa_invert+0x58>
 e0e:	46 2f       	mov	r20, r22
 e10:	4f 70       	andi	r20, 0x0F	; 15
 e12:	40 5d       	subi	r20, 0xD0	; 208
 e14:	4a 33       	cpi	r20, 0x3A	; 58
 e16:	18 f0       	brcs	.+6      	; 0xe1e <__ultoa_invert+0x7c>
 e18:	49 5d       	subi	r20, 0xD9	; 217
 e1a:	31 fd       	sbrc	r19, 1
 e1c:	40 52       	subi	r20, 0x20	; 32
 e1e:	41 93       	st	Z+, r20
 e20:	02 d0       	rcall	.+4      	; 0xe26 <__ultoa_invert+0x84>
 e22:	a9 f7       	brne	.-22     	; 0xe0e <__ultoa_invert+0x6c>
 e24:	ea cf       	rjmp	.-44     	; 0xdfa <__ultoa_invert+0x58>
 e26:	b4 e0       	ldi	r27, 0x04	; 4
 e28:	a6 95       	lsr	r26
 e2a:	97 95       	ror	r25
 e2c:	87 95       	ror	r24
 e2e:	77 95       	ror	r23
 e30:	67 95       	ror	r22
 e32:	ba 95       	dec	r27
 e34:	c9 f7       	brne	.-14     	; 0xe28 <__ultoa_invert+0x86>
 e36:	00 97       	sbiw	r24, 0x00	; 0
 e38:	61 05       	cpc	r22, r1
 e3a:	71 05       	cpc	r23, r1
 e3c:	08 95       	ret
 e3e:	9b 01       	movw	r18, r22
 e40:	ac 01       	movw	r20, r24
 e42:	0a 2e       	mov	r0, r26
 e44:	06 94       	lsr	r0
 e46:	57 95       	ror	r21
 e48:	47 95       	ror	r20
 e4a:	37 95       	ror	r19
 e4c:	27 95       	ror	r18
 e4e:	ba 95       	dec	r27
 e50:	c9 f7       	brne	.-14     	; 0xe44 <__ultoa_invert+0xa2>
 e52:	62 0f       	add	r22, r18
 e54:	73 1f       	adc	r23, r19
 e56:	84 1f       	adc	r24, r20
 e58:	95 1f       	adc	r25, r21
 e5a:	a0 1d       	adc	r26, r0
 e5c:	08 95       	ret

00000e5e <_exit>:
 e5e:	f8 94       	cli

00000e60 <__stop_program>:
 e60:	ff cf       	rjmp	.-2      	; 0xe60 <__stop_program>
